(lp1
(lp2
S'raining'
p3
aS'yellow'
p4
aS'four'
p5
aS'woods'
p6
aS'railing'
p7
aS'marching'
p8
aS'snowing'
p9
aS'sunlit'
p10
aS'shaving'
p11
aS'donkey'
p12
aS'wooded'
p13
aS'wooden'
p14
aS'PERSON'
p15
aS'ornamental'
p16
aS'tired'
p17
aS'hanging'
p18
aS'bacon'
p19
aS'tires'
p20
aS'elegant'
p21
aS'rusty'
p22
aS'blouse'
p23
aS'sesame'
p24
aS'cooking'
p25
aS'fingers'
p26
aS'numeral'
p27
aS'Plate'
p28
aS'Church'
p29
aS'fronts'
p30
aS'here'
p31
aS'herd'
p32
aS'china'
p33
aS'kids'
p34
aS'elaborate'
p35
aS'Market'
p36
aS'military'
p37
aS'special'
p38
aS'golden'
p39
aS'swan'
p40
aS'Three'
p41
aS'unit'
p42
aS'music'
p43
aS'strike'
p44
aS'females'
p45
aS'relax'
p46
aS'Person'
p47
aS'tying'
p48
aS'hole'
p49
aS'hold'
p50
aS'locked'
p51
aS'blade'
p52
aS'plunger'
p53
aS'melons'
p54
aS'triple'
p55
aS'household'
p56
aS'organized'
p57
aS'facade'
p58
aS'caution'
p59
aS'want'
p60
aS'hog'
p61
aS'travel'
p62
aS'drying'
p63
aS'feature'
p64
aS'machine'
p65
aS'how'
p66
aS'hot'
p67
aS'A'
aS'beauty'
p68
aS'Players'
p69
aS'types'
p70
aS'colorfully'
p71
aS'calves'
p72
aS'Bananas'
p73
aS'youths'
p74
aS'keeps'
p75
aS'wing'
p76
aS'wind'
p77
aS'wine'
p78
aS'PEOPLE'
p79
aS'wrought'
p80
aS'His'
p81
aS'fit'
p82
aS'directional'
p83
aS'plantains'
p84
aS'backpack'
p85
aS'vast'
p86
aS'hidden'
p87
aS'slicing'
p88
aS'parasols'
p89
aS'silver'
p90
aS'bricks'
p91
aS'headboard'
p92
aS'blazer'
p93
aS'skills'
p94
aS'arrow'
p95
aS'Mouse'
p96
aS'series'
p97
aS'spider'
p98
aS'bowls'
p99
aS'whit'
p100
aS'ring'
p101
aS'whip'
p102
aS'champagne'
p103
aS'mason'
p104
aS're'
p105
aS'pumpkins'
p106
aS'grapes'
p107
aS'sheet'
p108
aS'knit'
p109
aS'enormous'
p110
aS'shelves'
p111
aS'takeout'
p112
aS'cucumber'
p113
aS'speeds'
p114
aS'veggie'
p115
aS'shopped'
p116
aS'wash'
p117
aS'spinning'
p118
aS'bitten'
p119
aS'basketball'
p120
aS'service'
p121
aS'lego'
p122
aS'needed'
p123
aS'master'
p124
aS'legs'
p125
aS'canned'
p126
aS'cushions'
p127
aS'lunges'
p128
aS'convention'
p129
aS'Beautiful'
p130
aS'tree'
p131
aS'second'
p132
aS'shower'
p133
aS'Chicago'
p134
aS'runner'
p135
aS'paddles'
p136
aS'shrubs'
p137
aS'dozen'
p138
aS'escalator'
p139
aS'person'
p140
aS'soaked'
p141
aS'metallic'
p142
aS'doors'
p143
aS'grips'
p144
aS'zebras'
p145
aS'object'
p146
aS'mouth'
p147
aS'letter'
p148
aS'hut'
p149
aS'grove'
p150
aS'camp'
p151
aS'saying'
p152
aS'boogie'
p153
aS'recliner'
p154
aS'touches'
p155
aS'busy'
p156
aS'quaint'
p157
aS'menu'
p158
aS'theme'
p159
aS'rice'
p160
aS'plate'
p161
aS'pocket'
p162
aS'cushion'
p163
aS'relish'
p164
aS'greens'
p165
aS'nicely'
p166
aS'tights'
p167
aS'boarder'
p168
aS'hello'
p169
aS'dipping'
p170
aS'patch'
p171
aS'flanked'
p172
aS'fair'
p173
aS'Dogs'
p174
aS'best'
p175
aS'lots'
p176
aS'yogurt'
p177
aS'pirate'
p178
aS'rundown'
p179
aS'nature'
p180
aS'rolled'
p181
aS'toilette'
p182
aS'roller'
p183
aS'accident'
p184
aS'country'
p185
aS'pita'
p186
aS'and'
p187
aS'dorm'
p188
aS'blonde'
p189
aS'grazing'
p190
aS'pillars'
p191
aS'lighthouse'
p192
aS'skatepark'
p193
aS'chrome'
p194
aS'.'
aS'much'
p195
aS'stadium'
p196
aS'fry'
p197
aS'Flowers'
p198
aS'cub'
p199
aS'dots'
p200
aS'life'
p201
aS'skiis'
p202
aS'worker'
p203
aS'racquets'
p204
aS'lift'
p205
aS'child'
p206
aS'chili'
p207
aS'played'
p208
aS'player'
p209
aS'breakfast'
p210
aS'damaged'
p211
aS'Main'
p212
aS'things'
p213
aS'toaster'
p214
aS'split'
p215
aS'babies'
p216
aS'toasted'
p217
aS'boiled'
p218
aS'tops'
p219
aS'Angeles'
p220
aS'Table'
p221
aS'plaque'
p222
aS'sleeps'
p223
aS'had'
p224
aS'hay'
p225
aS'has'
p226
aS'hat'
p227
aS'posed'
p228
aS'possibly'
p229
aS'shadow'
p230
aS'poses'
p231
aS'semi'
p232
aS'pavement'
p233
aS'steps'
p234
aS'right'
p235
aS'old'
p236
aS'creek'
p237
aS'crowd'
p238
aS'people'
p239
aS'crown'
p240
aS'topping'
p241
aS'captive'
p242
aS'billboard'
p243
aS'equestrian'
p244
aS'for'
p245
aS'bottom'
p246
aS'fog'
p247
aS'pattern'
p248
aS'shaker'
p249
aS'shakes'
p250
aS'binder'
p251
aS'defensive'
p252
aS'benches'
p253
aS'visitors'
p254
aS'o'
aS'slightly'
p255
aS'flatbread'
p256
aS'raised'
p257
aS'facility'
p258
aS'son'
p259
aS'magazines'
p260
aS'raises'
p261
aS'wrap'
p262
aS'fabric'
p263
aS'waits'
p264
aS'croissant'
p265
aS'support'
p266
aS'Hand'
p267
aS'call'
p268
aS'avocados'
p269
aS'happy'
p270
aS'paneled'
p271
aS'inside'
p272
aS'devices'
p273
aS'lays'
p274
aS'panels'
p275
aS'passenger'
p276
aS'juvenile'
p277
aS'Variety'
p278
aS'Personal'
p279
aS'Six'
p280
aS'paperwork'
p281
aS'blueberry'
p282
aS'Francisco'
p283
aS'dotted'
p284
aS'floor'
p285
aS'flood'
p286
aS'roll'
p287
aS'greenery'
p288
aS'models'
p289
aS'smelling'
p290
aS'rolling'
p291
aS'glass'
p292
aS'time'
p293
aS'push'
p294
aS'peacock'
p295
aS'chain'
p296
aS'skate'
p297
aS'skiing'
p298
aS'trashcan'
p299
aS'chair'
p300
aS'midst'
p301
aS'aligned'
p302
aS'crates'
p303
aS'bicycles'
p304
aS'sneakers'
p305
aS'fatigues'
p306
aS'flatbed'
p307
aS'gloomy'
p308
aS'cooks'
p309
aS'tricycle'
p310
aS'leave'
p311
aS'subway'
p312
aS'teal'
p313
aS'team'
p314
aS'Tables'
p315
aS'meadow'
p316
aS'collage'
p317
aS'sigh'
p318
aS'sign'
p319
aS'chopping'
p320
aS'shirts'
p321
aS'falling'
p322
aS'climbs'
p323
aS'Woman'
p324
aS'alone'
p325
aS'along'
p326
aS'passengers'
p327
aS'dusty'
p328
aS'buss'
p329
aS'love'
p330
aS'bloody'
p331
aS'fake'
p332
aS'sky'
p333
aS'working'
p334
aS'wicker'
p335
aS'angry'
p336
aS'tightly'
p337
aS'by'
p338
aS'Assortment'
p339
aS'Those'
p340
aS'riders'
p341
aS'mascot'
p342
aS'following'
p343
aS'interstate'
p344
aS'mirrors'
p345
aS'parachute'
p346
aS'hides'
p347
aS'allowed'
p348
aS'winter'
p349
aS'divided'
p350
aS'poking'
p351
aS'elephant'
p352
aS'beans'
p353
aS'divider'
p354
aS'laundry'
p355
aS'sour'
p356
aS'spot'
p357
aS'such'
p358
aS'surfing'
p359
aS'natural'
p360
aS'varieties'
p361
aS'wheelchair'
p362
aS'placemat'
p363
aS'darkened'
p364
aS'truck'
p365
aS'pulled'
p366
aS'flips'
p367
aS'damage'
p368
aS'course'
p369
aS'Blurry'
p370
aS'thumb'
p371
aS'bagels'
p372
aS'torn'
p373
aS'stroll'
p374
aS'apron'
p375
aS'matches'
p376
aS'arriving'
p377
aS'twilight'
p378
aS'ketchup'
p379
aS'Yellow'
p380
aS'turtle'
p381
aS'square'
p382
aS'gaming'
p383
aS'entering'
p384
aS'salads'
p385
aS'briefcase'
p386
aS'naked'
p387
aS'canvas'
p388
aS'container'
p389
aS'rounding'
p390
aS'squares'
p391
aS'quite'
p392
aS'besides'
p393
aS'training'
p394
aS'silhouetted'
p395
aS'jetliners'
p396
aS'backside'
p397
aS'wrong'
p398
aS'ostrich'
p399
aS'massive'
p400
aS'parrot'
p401
aS'microphones'
p402
aS'one'
p403
aS'ATV'
p404
aS'potted'
p405
aS'open'
p406
aS'city'
p407
aS'bite'
p408
aS'waist'
p409
aS'indicate'
p410
aS'2'
aS'stuffed'
p411
aS'typing'
p412
aS'structures'
p413
aS'flatscreen'
p414
aS'Seven'
p415
aS'coats'
p416
aS'Zebra'
p417
aS'turned'
p418
aS'alley'
p419
aS'sad'
p420
aS'say'
p421
aS'sat'
p422
aS'baggage'
p423
aS'aside'
p424
aS'note'
p425
aS'take'
p426
aS'roadside'
p427
aS'butterfly'
p428
aS'handing'
p429
aS'printer'
p430
aS'altered'
p431
aS'opposite'
p432
aS'microwaves'
p433
aS'buffet'
p434
aS'printed'
p435
aS'knee'
p436
aS'lawn'
p437
aS'boys'
p438
aS'farmers'
p439
aS'drive'
p440
aS'ways'
p441
aS'backdrop'
p442
aS'salt'
p443
aS'walking'
p444
aS'grilling'
p445
aS'peaches'
p446
aS'bright'
p447
aS'slow'
p448
aS'slop'
p449
aS'going'
p450
aS'hockey'
p451
aS'equipped'
p452
aS'robe'
p453
aS'skyscraper'
p454
aS'suitcases'
p455
aS'tilting'
p456
aS'TABLE'
p457
aS'wheelie'
p458
aS'outlet'
p459
aS'awaiting'
p460
aS'settings'
p461
aS'skyline'
p462
aS'priest'
p463
aS'tortilla'
p464
aS'where'
p465
aS'horned'
p466
aS'dives'
p467
aS'That'
p468
aS'jumped'
p469
aS'goers'
p470
aS'enjoys'
p471
aS'surfboards'
p472
aS'cantaloupe'
p473
aS'checkered'
p474
aS'vertical'
p475
aS'screen'
p476
aS'dome'
p477
aS'supermarket'
p478
aS'reigns'
p479
aS'jets'
p480
aS'mans'
p481
aS'residence'
p482
aS'flipped'
p483
aS's'
aS'mane'
p484
aS'grooming'
p485
aS'expression'
p486
aS'directs'
p487
aS'twin'
p488
aS'twig'
p489
aS'boat'
p490
aS'Skier'
p491
aS'cities'
p492
aS'teddy'
p493
aS'stretch'
p494
aS'toothpaste'
p495
aS'airliner'
p496
aS'stripped'
p497
aS'reflective'
p498
aS'wants'
p499
aS'lanes'
p500
aS'centerpiece'
p501
aS'photos'
p502
aS'observe'
p503
aS'canoes'
p504
aS'newspaper'
p505
aS'curb'
p506
aS'canoe'
p507
aS'Tennis'
p508
aS'purse'
p509
aS'Looking'
p510
aS'ivy'
p511
aS'cafe'
p512
aS'feather'
p513
aS'barbed'
p514
aS'wires'
p515
aS'I'
aS'edges'
p516
aS'wired'
p517
aS'Smiling'
p518
aS'mohawk'
p519
aS'Colorful'
p520
aS'vacant'
p521
aS'Graffiti'
p522
aS'trains'
p523
aS'lambs'
p524
aS'summer'
p525
aS'neighborhood'
p526
aS'steamed'
p527
aS'being'
p528
aS'rest'
p529
aS'pillar'
p530
aS'slats'
p531
aS'instrument'
p532
aS'Pictures'
p533
aS'skies'
p534
aS'skier'
p535
aS'around'
p536
aS'dark'
p537
aS'traffic'
p538
aS'world'
p539
aS'clad'
p540
aS'clay'
p541
aS'claw'
p542
aS'stationary'
p543
aS'grouping'
p544
aS'seating'
p545
aS'lobster'
p546
aS'diving'
p547
aS'pickles'
p548
aS'substance'
p549
aS'tube'
p550
aS'nook'
p551
aS'exit'
p552
aS'prepared'
p553
aS'stone'
p554
aS'package'
p555
aS'slender'
p556
aS'act'
p557
aS'burning'
p558
aS'No'
p559
aS'image'
p560
aS'legged'
p561
aS'wade'
p562
aS'Empty'
p563
aS'racquet'
p564
aS'her'
p565
aS'bookcases'
p566
aS'lounging'
p567
aS'slopes'
p568
aS'bubble'
p569
aS'complete'
p570
aS'gliding'
p571
aS'mice'
p572
aS'with'
p573
aS'cords'
p574
aS'pull'
p575
aS'dirty'
p576
aS'Close'
p577
aS'napping'
p578
aS'rust'
p579
aS'engine'
p580
aS'ad'
p581
aS'certain'
p582
aS'accents'
p583
aS'Airlines'
p584
aS'watches'
p585
aS'an'
p586
aS'Hot'
p587
aS'at'
p588
aS'walks'
p589
aS'watched'
p590
aS'pedestal'
p591
aS'cream'
p592
aS'tight'
p593
aS'someones'
p594
aS'puppy'
p595
aS'Lady'
p596
aS'Asian'
p597
aS'motorcyclists'
p598
aS'beaks'
p599
aS'waving'
p600
aS'herbs'
p601
aS'festive'
p602
aS'tricks'
p603
aS'groom'
p604
aS'mask'
p605
aS'eatery'
p606
aS'Street'
p607
aS'mass'
p608
aS'Canada'
p609
aS'ceramic'
p610
aS'debris'
p611
aS'tv'
p612
aS'laughing'
p613
aS'to'
p614
aS'tail'
p615
aS'chewing'
p616
aS'dressing'
p617
aS'smile'
p618
aS'roadway'
p619
aS'paying'
p620
aS'cable'
p621
aS'laying'
p622
aS'large'
p623
aS'sand'
p624
aS'small'
p625
aS'past'
p626
aS'carriages'
p627
aS'displays'
p628
aS'pass'
p629
aS'situated'
p630
aS'handicapped'
p631
aS'clock'
p632
aS'section'
p633
aS'burgundy'
p634
aS'Pepsi'
p635
aS'nurse'
p636
aS'revealing'
p637
aS'full'
p638
aS'hash'
p639
aS'leaping'
p640
aS'mound'
p641
aS'social'
p642
aS'action'
p643
aS'Airplane'
p644
aS'via'
p645
aS'indoors'
p646
aS'cluttered'
p647
aS'pulls'
p648
aS'ridding'
p649
aS'poodle'
p650
aS'pears'
p651
aS'pitching'
p652
aS'more'
p653
aS'teen'
p654
aS'door'
p655
aS'company'
p656
aS'shaggy'
p657
aS'keeping'
p658
aS'gravel'
p659
aS'mall'
p660
aS'learn'
p661
aS'knocked'
p662
aS'seagull'
p663
aS'male'
p664
aS'beautiful'
p665
aS'bidet'
p666
aS'autumn'
p667
aS'dress'
p668
aS'information'
p669
aS'stickers'
p670
aS'thumbs'
p671
aS'glowing'
p672
aS'freshly'
p673
aS'browns'
p674
aS'creature'
p675
aS'plant'
p676
aS'countryside'
p677
aS'plane'
p678
aS'waves'
p679
aS'backyard'
p680
aS'plank'
p681
aS'resemble'
p682
aS'register'
p683
aS'hauling'
p684
aS'volleyball'
p685
aS'Pizza'
p686
aS'wrench'
p687
aS'Signs'
p688
aS'asparagus'
p689
aS'patio'
p690
aS'pans'
p691
aS'wooly'
p692
aS'adorned'
p693
aS'Purple'
p694
aS'installed'
p695
aS'paper'
p696
aS'pane'
p697
aS'signs'
p698
aS'smiling'
p699
aS'its'
p700
aS'licks'
p701
aS'travelling'
p702
aS'sauce'
p703
aS'Kreme'
p704
aS'weeds'
p705
aS'Car'
p706
aS'hotdogs'
p707
aS'iced'
p708
aS'hook'
p709
aS'always'
p710
aS'found'
p711
aS'lantern'
p712
aS'bends'
p713
aS'numerals'
p714
aS'rowboats'
p715
aS'really'
p716
aS'Picture'
p717
aS'misses'
p718
aS'highway'
p719
aS'porcelain'
p720
aS'cockpit'
p721
aS'rises'
p722
aS'owners'
p723
aS'FedEx'
p724
aS'afternoon'
p725
aS'bumper'
p726
aS'castle'
p727
aS'clump'
p728
aS'major'
p729
aS'number'
p730
aS'feeder'
p731
aS'gazes'
p732
aS'ironing'
p733
aS'heads'
p734
aS'jet'
p735
aS'cartoon'
p736
aS'Giraffe'
p737
aS'mural'
p738
aS'stairs'
p739
aS'panda'
p740
aS'taxis'
p741
aS'Teddy'
p742
aS'ranch'
p743
aS'refrigerators'
p744
aS'mossy'
p745
aS'businesses'
p746
aS'pedestrian'
p747
aS'graffiti'
p748
aS'blond'
p749
aS'sell'
p750
aS'Food'
p751
aS'pajamas'
p752
aS'self'
p753
aS'also'
p754
aS'play'
p755
aS'swiftly'
p756
aS'plat'
p757
aS'unused'
p758
aS'plan'
p759
aS'tips'
p760
aS'sauerkraut'
p761
aS'cover'
p762
aS'giving'
p763
aS'artistic'
p764
aS'barren'
p765
aS'barrel'
p766
aS'golf'
p767
aS'gold'
p768
aS'freight'
p769
aS'blender'
p770
aS'indicator'
p771
aS'streetlights'
p772
aS'columns'
p773
aS'boarding'
p774
aS'beams'
p775
aS'sunny'
p776
aS'Cooked'
p777
aS'preparing'
p778
aS'closely'
p779
aS'banner'
p780
aS'sleeve'
p781
aS'paddling'
p782
aS'tabby'
p783
aS'caramel'
p784
aS'river'
p785
aS'approaching'
p786
aS'set'
p787
aS'see'
p788
aS'sea'
p789
aS'analog'
p790
aS'project'
p791
aS'movie'
p792
aS'currently'
p793
aS'guides'
p794
aS'pickup'
p795
aS'crosswalk'
p796
aS'available'
p797
aS'sparsely'
p798
aS'last'
p799
aS'barely'
p800
aS'whole'
p801
aS'patty'
p802
aS'load'
p803
aS'loaf'
p804
aS'bell'
p805
aS'community'
p806
aS'church'
p807
aS'belt'
p808
aS'airfield'
p809
aS'conveyor'
p810
aS'Cars'
p811
aS'hitting'
p812
aS'Train'
p813
aS'resting'
p814
aS'squirrel'
p815
aS'fire'
p816
aS'wheeler'
p817
aS'racer'
p818
aS'races'
p819
aS'wheeled'
p820
aS'handling'
p821
aS'Old'
p822
aS'Chinese'
p823
aS'caged'
p824
aS'straight'
p825
aS'tip'
p826
aS'knacks'
p827
aS'pressed'
p828
aS'leaning'
p829
aS'kissing'
p830
aS'cages'
p831
aS'Cola'
p832
aS'real'
p833
aS'pound'
p834
aS'calculator'
p835
aS'ducks'
p836
aS'beautifully'
p837
aS'funny'
p838
aS'decor'
p839
aS'elevated'
p840
aS'flooded'
p841
aS'alert'
p842
aS'viewing'
p843
aS'levels'
p844
aS'leaps'
p845
aS'stack'
p846
aS'focal'
p847
aS'picks'
p848
aS'concrete'
p849
aS'Sox'
p850
aS'bleachers'
p851
aS'Mountain'
p852
aS'stunt'
p853
aS'doily'
p854
aS'drizzled'
p855
aS'signal'
p856
aS'advertisements'
p857
aS'signals'
p858
aS'grapefruit'
p859
aS'parents'
p860
aS'location'
p861
aS'crying'
p862
aS'surprised'
p863
aS'On'
p864
aS'They'
p865
aS'emergency'
p866
aS'couple'
p867
aS'private'
p868
aS'Shot'
p869
aS'ON'
p870
aS'd'
aS'OF'
p871
aS'individuals'
p872
aS'stylish'
p873
aS'names'
p874
aS'spring'
p875
aS'streamers'
p876
aS'limb'
p877
aS'palm'
p878
aS'sight'
p879
aS'curious'
p880
aS'pale'
p881
aS'ornate'
p882
aS'be'
p883
aS'bi'
p884
aS'santa'
p885
aS'Fruits'
p886
aS'wildlife'
p887
aS'repair'
p888
aS'garbage'
p889
aS'into'
p890
aS'Young'
p891
aS'tasting'
p892
aS'custom'
p893
aS'suit'
p894
aS':'
aS'opens'
p895
aS'poster'
p896
aS'atop'
p897
aS'link'
p898
aS'line'
p899
aS'relaxes'
p900
aS'posted'
p901
aS'collared'
p902
aS'Office'
p903
aS'up'
p904
aS'us'
p905
aS'mature'
p906
aS'faded'
p907
aS'aerial'
p908
aS'Outside'
p909
aS'fixing'
p910
aS'tarp'
p911
aS'scrub'
p912
aS'sided'
p913
aS'cobblestone'
p914
aS'meals'
p915
aS'bases'
p916
aS'lane'
p917
aS'land'
p918
aS'fighter'
p919
aS'pedestrians'
p920
aS'holes'
p921
aS'beverage'
p922
aS'came'
p923
aS'walker'
p924
aS'fresh'
p925
aS'having'
p926
aS'partial'
p927
aS'lunging'
p928
aS'squats'
p929
aS'splashing'
p930
aS'stops'
p931
aS'windowsill'
p932
aS'concerned'
p933
aS'young'
p934
aS'indicating'
p935
aS'stocked'
p936
aS'garden'
p937
aS'panting'
p938
aS'mixing'
p939
aS'animals'
p940
aS'decorating'
p941
aS'harbor'
p942
aS'race'
p943
aS'rack'
p944
aS'diced'
p945
aS'video'
p946
aS'enclosed'
p947
aS'odd'
p948
aS'flowing'
p949
aS'bird'
p950
aS'waling'
p951
aS'scenery'
p952
aS'led'
p953
aS'leg'
p954
aS'gathered'
p955
aS'punch'
p956
aS'delivering'
p957
aS'let'
p958
aS'web'
p959
aS'great'
p960
aS'receive'
p961
aS'derby'
p962
aS'makes'
p963
aS'maker'
p964
aS'thats'
p965
aS'nibbling'
p966
aS'tools'
p967
aS'standing'
p968
aS'chocolates'
p969
aS'bush'
p970
aS'next'
p971
aS'pencil'
p972
aS'Multi'
p973
aS'wades'
p974
aS'patrol'
p975
aS'carrying'
p976
aS'baby'
p977
aS'casserole'
p978
aS'customer'
p979
aS'high'
p980
aS'balls'
p981
aS'practicing'
p982
aS'this'
p983
aS'athlete'
p984
aS'thin'
p985
aS'wedge'
p986
aS'Police'
p987
aS'bent'
p988
aS'process'
p989
aS'rode'
p990
aS'pieces'
p991
aS'Cats'
p992
aS'bend'
p993
aS'paws'
p994
aS'Christmas'
p995
aS'Several'
p996
aS'docking'
p997
aS'wares'
p998
aS'animal'
p999
aS'hangar'
p1000
aS'establishment'
p1001
aS'contraption'
p1002
aS'wallpaper'
p1003
aS'tied'
p1004
aS'hitched'
p1005
aS'notebook'
p1006
aS'tier'
p1007
aS'ties'
p1008
aS'cabbage'
p1009
aS'hawk'
p1010
aS'racks'
p1011
aS'tomato'
p1012
aS'Apple'
p1013
aS'counter'
p1014
aS'robot'
p1015
aS'allow'
p1016
aS'antelope'
p1017
aS'move'
p1018
aS'spatula'
p1019
aS'perfect'
p1020
aS'decal'
p1021
aS'attachment'
p1022
aS'designs'
p1023
aS'knick'
p1024
aS'ship'
p1025
aS'dock'
p1026
aS'snake'
p1027
aS'kiss'
p1028
aS'cage'
p1029
aS'scenic'
p1030
aS'sniffing'
p1031
aS'accompanied'
p1032
aS'beneath'
p1033
aS'glasses'
p1034
aS'tents'
p1035
aS'doing'
p1036
aS'books'
p1037
aS'blocks'
p1038
aS'wander'
p1039
aS"'"
aS'Very'
p1040
aS'shut'
p1041
aS'await'
p1042
aS'graze'
p1043
aS'steering'
p1044
aS'could'
p1045
aS'Jesus'
p1046
aS'length'
p1047
aS'pigs'
p1048
aS'pudding'
p1049
aS'motorbikes'
p1050
aS'scarf'
p1051
aS'blown'
p1052
aS'scene'
p1053
aS'owner'
p1054
aS'blows'
p1055
aS'festival'
p1056
aS'system'
p1057
aS'Birthday'
p1058
aS'Adult'
p1059
aS'decorations'
p1060
aS'stomach'
p1061
aS'stars'
p1062
aS'shorts'
p1063
aS'unoccupied'
p1064
aS'steel'
p1065
aS'pads'
p1066
aS'steep'
p1067
aS'steer'
p1068
aS'Rows'
p1069
aS'viewer'
p1070
aS'gentle'
p1071
aS'One'
p1072
aS'clearly'
p1073
aS'viewed'
p1074
aS'illuminated'
p1075
aS'mountainous'
p1076
aS'demolished'
p1077
aS'soap'
p1078
aS'iPhone'
p1079
aS'petals'
p1080
aS'device'
p1081
aS'face'
p1082
aS'mustache'
p1083
aS'mechanical'
p1084
aS'painting'
p1085
aS'rings'
p1086
aS'biker'
p1087
aS'bikes'
p1088
aS'bedroom'
p1089
aS'rough'
p1090
aS'pause'
p1091
aS'planter'
p1092
aS'jar'
p1093
aS'should'
p1094
aS'buttons'
p1095
aS'tape'
p1096
aS'riding'
p1097
aS'hope'
p1098
aS'handle'
p1099
aS'stuff'
p1100
aS'handstand'
p1101
aS'motorcycle'
p1102
aS'bucket'
p1103
aS'frame'
p1104
aS'slanted'
p1105
aS'skateboarding'
p1106
aS'packed'
p1107
aS'wire'
p1108
aS'interacting'
p1109
aS'PC'
p1110
aS'cloudless'
p1111
aS'Kitchen'
p1112
aS'ends'
p1113
aS'courtyard'
p1114
aS'staring'
p1115
aS'drum'
p1116
aS'ramp'
p1117
aS'rams'
p1118
aS'etc'
p1119
aS'doorway'
p1120
aS'figures'
p1121
aS'Boat'
p1122
aS'Cows'
p1123
aS'Girls'
p1124
aS'powered'
p1125
aS'poured'
p1126
aS'chalkboard'
p1127
aS'waste'
p1128
aS'commuter'
p1129
aS'runway'
p1130
aS'bathtub'
p1131
aS'stuffing'
p1132
aS'ripe'
p1133
aS'lush'
p1134
aS'site'
p1135
aS'Frisbees'
p1136
aS'sits'
p1137
aS'tattoo'
p1138
aS'moves'
p1139
aS'ball'
p1140
aS'dusk'
p1141
aS'bald'
p1142
aS'upon'
p1143
aS'Grey'
p1144
aS'Decker'
p1145
aS'dust'
p1146
aS'overalls'
p1147
aS'broccoli'
p1148
aS'mosaic'
p1149
aS'off'
p1150
aS'overcast'
p1151
aS'350'
p1152
aS'drawing'
p1153
aS'bananas'
p1154
aS'less'
p1155
aS'clocks'
p1156
aS'rooms'
p1157
aS'years'
p1158
aS'Dark'
p1159
aS'combing'
p1160
aS'wet'
p1161
aS'checking'
p1162
aS'Snow'
p1163
aS'five'
p1164
aS'desk'
p1165
aS'pier'
p1166
aS'pies'
p1167
aS'San'
p1168
aS'onion'
p1169
aS'chairs'
p1170
aS'garage'
p1171
aS'habitat'
p1172
aS'almonds'
p1173
aS'flush'
p1174
aS'transport'
p1175
aS'hipsters'
p1176
aS'does'
p1177
aS'blurry'
p1178
aS'stairway'
p1179
aS'blowing'
p1180
aS'Inside'
p1181
aS'stage'
p1182
aS'Toilet'
p1183
aS'seeds'
p1184
aS'swimming'
p1185
aS'letters'
p1186
aS'STOP'
p1187
aS'parsley'
p1188
aS'roads'
p1189
aS'swimmers'
p1190
aS'brownies'
p1191
aS'housing'
p1192
aS'delivery'
p1193
aS'grate'
p1194
aS'Bicycle'
p1195
aS'places'
p1196
aS'chained'
p1197
aS'official'
p1198
aS'placed'
p1199
aS'leashes'
p1200
aS'monument'
p1201
aS'advertisement'
p1202
aS'rubble'
p1203
aS'replica'
p1204
aS'vines'
p1205
aS'variety'
p1206
aS'details'
p1207
aS'frisbee'
p1208
aS'embracing'
p1209
aS'U'
aS'throughout'
p1210
aS'rural'
p1211
aS'all'
p1212
aS'Skateboarder'
p1213
aS'worked'
p1214
aS'Claus'
p1215
aS'Seagulls'
p1216
aS'bike'
p1217
aS'China'
p1218
aS'bunches'
p1219
aS'League'
p1220
aS'blanket'
p1221
aS'penny'
p1222
aS'closeup'
p1223
aS'Military'
p1224
aS'MAN'
p1225
aS'phones'
p1226
aS'horn'
p1227
aS'chef'
p1228
aS'Boats'
p1229
aS'planters'
p1230
aS'machines'
p1231
aS'above'
p1232
aS'ceilings'
p1233
aS'consisting'
p1234
aS'counters'
p1235
aS'sinks'
p1236
aS'Brown'
p1237
aS'wrapping'
p1238
aS'celebration'
p1239
aS'daughter'
p1240
aS'items'
p1241
aS'employees'
p1242
aS'Queen'
p1243
aS'smoke'
p1244
aS'lining'
p1245
aS'Home'
p1246
aS'Jet'
p1247
aS'bra'
p1248
aS'plow'
p1249
aS'sweater'
p1250
aS'bundles'
p1251
aS'bundled'
p1252
aS'separated'
p1253
aS'award'
p1254
aS'blocking'
p1255
aS'zucchini'
p1256
aS'word'
p1257
aS'work'
p1258
aS'worn'
p1259
aS'era'
p1260
aS'blooming'
p1261
aS'elbow'
p1262
aS'crackers'
p1263
aS'airstrip'
p1264
aS'indicates'
p1265
aS'woman'
p1266
aS'veggies'
p1267
aS'conditioner'
p1268
aS'provide'
p1269
aS'nuts'
p1270
aS'boats'
p1271
aS'Skiers'
p1272
aS'beach'
p1273
aS'pizza'
p1274
aS'ladder'
p1275
aS'after'
p1276
aS'lab'
p1277
aS'lay'
p1278
aS'law'
p1279
aS'lap'
p1280
aS'green'
p1281
aS'ambulance'
p1282
aS'order'
p1283
aS'salon'
p1284
aS'office'
p1285
aS'muffin'
p1286
aS'nets'
p1287
aS'ticket'
p1288
aS'somewhere'
p1289
aS'avocado'
p1290
aS'carton'
p1291
aS'then'
p1292
aS'them'
p1293
aS'break'
p1294
aS'band'
p1295
aS'giraffe'
p1296
aS'reaches'
p1297
aS'they'
p1298
aS'bank'
p1299
aS'bread'
p1300
aS'rocks'
p1301
aS'dingy'
p1302
aS'hurdle'
p1303
aS'feeds'
p1304
aS'lifted'
p1305
aS'kneels'
p1306
aS'logs'
p1307
aS'sled'
p1308
aS'logo'
p1309
aS'flock'
p1310
aS'motorized'
p1311
aS'cameras'
p1312
aS'hooked'
p1313
aS'medicine'
p1314
aS'sliding'
p1315
aS'barrier'
p1316
aS'standard'
p1317
aS'baseman'
p1318
aS'created'
p1319
aS'Truck'
p1320
aS'laps'
p1321
aS'Apples'
p1322
aS'chopped'
p1323
aS'another'
p1324
aS'thick'
p1325
aS'electronic'
p1326
aS'tuna'
p1327
aS'newspapers'
p1328
aS'dogs'
p1329
aS'kiwi'
p1330
aS'happily'
p1331
aS'reins'
p1332
aS'cereal'
p1333
aS'seated'
p1334
aS'iron'
p1335
aS'giraffes'
p1336
aS'manner'
p1337
aS'stalls'
p1338
aS'contents'
p1339
aS'East'
p1340
aS'necktie'
p1341
aS'casual'
p1342
aS'practices'
p1343
aS'swims'
p1344
aS'gravy'
p1345
aS'Meat'
p1346
aS'what'
p1347
aS'extending'
p1348
aS'Side'
p1349
aS'brief'
p1350
aS'chandelier'
p1351
aS'European'
p1352
aS'toast'
p1353
aS'goalie'
p1354
aS'do'
p1355
aS'frowning'
p1356
aS'Slice'
p1357
aS'nasty'
p1358
aS'runs'
p1359
aS'covering'
p1360
aS'emo'
p1361
aS'steal'
p1362
aS'steam'
p1363
aS'sheering'
p1364
aS'observes'
p1365
aS'observed'
p1366
aS'cattle'
p1367
aS'away'
p1368
aS'gentleman'
p1369
aS'Water'
p1370
aS'overgrown'
p1371
aS'drawn'
p1372
aS'we'
p1373
aS'packaged'
p1374
aS'packages'
p1375
aS'kitchen'
p1376
aS'cop'
p1377
aS'cot'
p1378
aS'cow'
p1379
aS'cob'
p1380
aS'Navy'
p1381
aS'peacefully'
p1382
aS'tone'
p1383
aS'royal'
p1384
aS'headlights'
p1385
aS'engines'
p1386
aS'Groups'
p1387
aS'canopy'
p1388
aS'dozens'
p1389
aS'families'
p1390
aS'easy'
p1391
aS'relaxing'
p1392
aS'Night'
p1393
aS'tide'
p1394
aS'air'
p1395
aS'comfortably'
p1396
aS'savanna'
p1397
aS'Thomas'
p1398
aS'sticker'
p1399
aS'tissue'
p1400
aS'cone'
p1401
aS'drawers'
p1402
aS'perform'
p1403
aS'demonstration'
p1404
aS'Stop'
p1405
aS'plated'
p1406
aS'plates'
p1407
aS'bunny'
p1408
aS'rail'
p1409
aS'rain'
p1410
aS'hand'
p1411
aS'kept'
p1412
aS'dishes'
p1413
aS'condiments'
p1414
aS'Airways'
p1415
aS'compartments'
p1416
aS'contact'
p1417
aS'the'
p1418
aS'musical'
p1419
aS'trainer'
p1420
aS'photo'
p1421
aS'mid'
p1422
aS'goggles'
p1423
aS'unique'
p1424
aS'hills'
p1425
aS'flooring'
p1426
aS'photographer'
p1427
aS'board'
p1428
aS'photographed'
p1429
aS'boxed'
p1430
aS'Restaurant'
p1431
aS'caps'
p1432
aS'barge'
p1433
aS'cooler'
p1434
aS'cool'
p1435
aS'carnival'
p1436
aS'sparse'
p1437
aS'night'
p1438
aS'security'
p1439
aS'antique'
p1440
aS'purple'
p1441
aS'/'
aS'filming'
p1442
aS'adorable'
p1443
aS'peel'
p1444
aS'pose'
p1445
aS'architectural'
p1446
aS'peer'
p1447
aS'post'
p1448
aS'trophy'
p1449
aS'diner'
p1450
aS'Image'
p1451
aS'horizon'
p1452
aS'octopus'
p1453
aS'Cut'
p1454
aS'mantle'
p1455
aS'float'
p1456
aS'balances'
p1457
aS'capped'
p1458
aS'balanced'
p1459
aS'amidst'
p1460
aS'fight'
p1461
aS'way'
p1462
aS'wax'
p1463
aS'was'
p1464
aS'war'
p1465
aS'snowy'
p1466
aS'needles'
p1467
aS'dead'
p1468
aS'sailboats'
p1469
aS'garnish'
p1470
aS'crop'
p1471
aS'crystal'
p1472
aS'sides'
p1473
aS'shrubbery'
p1474
aS'umpire'
p1475
aS'20'
p1476
aS'dimly'
p1477
aS'handmade'
p1478
aS'topped'
p1479
aS'holding'
p1480
aS'juicer'
p1481
aS'welcome'
p1482
aS'together'
p1483
aS'beds'
p1484
aS'reception'
p1485
aS'Chicken'
p1486
aS'concept'
p1487
aS'dance'
p1488
aS'silverware'
p1489
aS'horseback'
p1490
aS'daytime'
p1491
aS'Stuffed'
p1492
aS'Elephant'
p1493
aS'zone'
p1494
aS'hovers'
p1495
aS'flash'
p1496
aS'tusk'
p1497
aS'brown'
p1498
aS'protective'
p1499
aS'seemingly'
p1500
aS'automobiles'
p1501
aS'kitten'
p1502
aS'presented'
p1503
aS'turns'
p1504
aS'gun'
p1505
aS'gum'
p1506
aS'kits'
p1507
aS'steeple'
p1508
aS'sidewalk'
p1509
aS'woven'
p1510
aS'upper'
p1511
aS'Orange'
p1512
aS'appear'
p1513
aS'shares'
p1514
aS'uniform'
p1515
aS'peels'
p1516
aS'peeled'
p1517
aS'English'
p1518
aS'appears'
p1519
aS'change'
p1520
aS'incoming'
p1521
aS'flames'
p1522
aS'exiting'
p1523
aS'pillow'
p1524
aS'hiking'
p1525
aS'extra'
p1526
aS'marked'
p1527
aS'snowboard'
p1528
aS'seashore'
p1529
aS'marker'
p1530
aS'compete'
p1531
aS'market'
p1532
aS'flavors'
p1533
aS'terminal'
p1534
aS'live'
p1535
aS'jam'
p1536
aS'intently'
p1537
aS'entrance'
p1538
aS'countertop'
p1539
aS'club'
p1540
aS'futon'
p1541
aS'countertops'
p1542
aS'graphic'
p1543
aS'decked'
p1544
aS'SITTING'
p1545
aS'car'
p1546
aS'cap'
p1547
aS'cat'
p1548
aS'decker'
p1549
aS'labeled'
p1550
aS'gathers'
p1551
aS'can'
p1552
aS'cab'
p1553
aS'heart'
p1554
aS'grassy'
p1555
aS'pauses'
p1556
aS'chip'
p1557
aS'heard'
p1558
aS'posing'
p1559
aS'spa'
p1560
aS'clothing'
p1561
aS'airplane'
p1562
aS'wetsuits'
p1563
aS'spreads'
p1564
aS'freezer'
p1565
aS'lounge'
p1566
aS'product'
p1567
aS'staircase'
p1568
aS'produce'
p1569
aS'lifting'
p1570
aS'View'
p1571
aS'candles'
p1572
aS'typical'
p1573
aS'Sheep'
p1574
aS'tagged'
p1575
aS'serving'
p1576
aS'colt'
p1577
aS'haircut'
p1578
aS'displayed'
p1579
aS'playful'
p1580
aS'cold'
p1581
aS'still'
p1582
aS'birds'
p1583
aS'cola'
p1584
aS'tending'
p1585
aS'rooftop'
p1586
aS'curly'
p1587
aS'window'
p1588
aS'spacious'
p1589
aS'Broccoli'
p1590
aS'non'
p1591
aS'half'
p1592
aS'not'
p1593
aS'Tower'
p1594
aS'now'
p1595
aS'hall'
p1596
aS'galloping'
p1597
aS'down'
p1598
aS'SUV'
p1599
aS'drop'
p1600
aS'cliffs'
p1601
aS'fired'
p1602
aS'directing'
p1603
aS'year'
p1604
aS'amusement'
p1605
aS'shown'
p1606
aS'opened'
p1607
aS'space'
p1608
aS'looking'
p1609
aS'shows'
p1610
aS'yarn'
p1611
aS'cars'
p1612
aS'cart'
p1613
aS'Vehicles'
p1614
aS'marina'
p1615
aS'marine'
p1616
aS'card'
p1617
aS'care'
p1618
aS'fixed'
p1619
aS'flying'
p1620
aS'shears'
p1621
aS'striking'
p1622
aS'There'
p1623
aS'mountainside'
p1624
aS'flipping'
p1625
aS'Asia'
p1626
aS'directly'
p1627
aS'message'
p1628
aS'size'
p1629
aS'sheep'
p1630
aS'checked'
p1631
aS'caught'
p1632
aS'breed'
p1633
aS'tusks'
p1634
aS'carousel'
p1635
aS'friend'
p1636
aS'mostly'
p1637
aS'that'
p1638
aS'expanse'
p1639
aS'flowery'
p1640
aS'Shirtless'
p1641
aS'flowers'
p1642
aS'than'
p1643
aS'television'
p1644
aS'apples'
p1645
aS'fruits'
p1646
aS'angel'
p1647
aS'distorted'
p1648
aS'slab'
p1649
aS'Player'
p1650
aS'equipment'
p1651
aS'begin'
p1652
aS'price'
p1653
aS'neatly'
p1654
aS'tooth'
p1655
aS'sunset'
p1656
aS'professional'
p1657
aS'filing'
p1658
aS'ground'
p1659
aS'snack'
p1660
aS'stair'
p1661
aS'stained'
p1662
aS'only'
p1663
aS'stain'
p1664
aS'pumpkin'
p1665
aS'televisions'
p1666
aS'remotes'
p1667
aS'cannot'
p1668
aS'celebrate'
p1669
aS'leather'
p1670
aS'concert'
p1671
aS'anchored'
p1672
aS'asleep'
p1673
aS'sport'
p1674
aS'3'
aS'between'
p1675
aS'whipped'
p1676
aS'wheels'
p1677
aS'comes'
p1678
aS'nearby'
p1679
aS'overview'
p1680
aS'jeans'
p1681
aS'learning'
p1682
aS'forehand'
p1683
aS'olives'
p1684
aS'tropical'
p1685
aS'Pair'
p1686
aS'tournament'
p1687
aS'fours'
p1688
aS'stovetop'
p1689
aS'stems'
p1690
aS'foggy'
p1691
aS'skiers'
p1692
aS'these'
p1693
aS'trick'
p1694
aS'alcoholic'
p1695
aS'inflatable'
p1696
aS'figurines'
p1697
aS'heels'
p1698
aS'somebody'
p1699
aS'waterway'
p1700
aS'floating'
p1701
aS'gentlemen'
p1702
aS'figurine'
p1703
aS'lite'
p1704
aS'finish'
p1705
aS'foal'
p1706
aS'foam'
p1707
aS', "'
p1708
aS'mesh'
p1709
aS'fruit'
p1710
aS'theater'
p1711
aS'charger'
p1712
aS'breeze'
p1713
aS'taxi'
p1714
aS'livestock'
p1715
aS'neon'
p1716
aS'foot'
p1717
aS'touch'
p1718
aS'speed'
p1719
aS'snowboarder'
p1720
aS'mirrored'
p1721
aS'desktop'
p1722
aS'propped'
p1723
aS'read'
p1724
aS'ruler'
p1725
aS'stools'
p1726
aS'early'
p1727
aS'overlooks'
p1728
aS'listening'
p1729
aS'using'
p1730
aS'lady'
p1731
aS'rear'
p1732
aS'conversing'
p1733
aS'greeting'
p1734
aS't'
aS'downward'
p1735
aS'twelve'
p1736
aS'exposed'
p1737
aS'dragging'
p1738
aS'Hello'
p1739
aS'forks'
p1740
aS'assembly'
p1741
aS'business'
p1742
aS'Wooden'
p1743
aS'chefs'
p1744
aS'incline'
p1745
aS'sniffs'
p1746
aS'throw'
p1747
aS'paints'
p1748
aS'chop'
p1749
aS'fell'
p1750
aS'processor'
p1751
aS'heater'
p1752
aS'your'
p1753
aS'stare'
p1754
aS'log'
p1755
aS'prepare'
p1756
aS'area'
p1757
aS'removing'
p1758
aS'Hotel'
p1759
aS'start'
p1760
aS'cats'
p1761
aS'low'
p1762
aS'lot'
p1763
aS'Motorcycles'
p1764
aS'pitcher'
p1765
aS'curiously'
p1766
aS'omelet'
p1767
aS'cottage'
p1768
aS'pitched'
p1769
aS'trying'
p1770
aS'toned'
p1771
aS'embedded'
p1772
aS'appliance'
p1773
aS'oxen'
p1774
aS'moved'
p1775
aS'skateboarders'
p1776
aS'cabinets'
p1777
aS'Computer'
p1778
aS'storage'
p1779
aS'milking'
p1780
aS'you'
p1781
aS'polar'
p1782
aS'airplanes'
p1783
aS'pear'
p1784
aS'peas'
p1785
aS'podium'
p1786
aS'peak'
p1787
aS'overturned'
p1788
aS'pool'
p1789
aS'building'
p1790
aS'ridden'
p1791
aS'Mexican'
p1792
aS'Modern'
p1793
aS'untidy'
p1794
aS'strings'
p1795
aS'mannequin'
p1796
aS'skeleton'
p1797
aS'pointing'
p1798
aS'gown'
p1799
aS'mp3'
p1800
aS'messy'
p1801
aS'religious'
p1802
aS'carpet'
p1803
aS' '
aS'blueberries'
p1804
aS'fountain'
p1805
aS'washroom'
p1806
aS'very'
p1807
aS'robes'
p1808
aS'me'
p1809
aS'balancing'
p1810
aS'pasture'
p1811
aS'Breakfast'
p1812
aS'locomotive'
p1813
aS'cookies'
p1814
aS'fence'
p1815
aS'streets'
p1816
aS'loose'
p1817
aS'tracks'
p1818
aS'trunk'
p1819
aS'strong'
p1820
aS'arena'
p1821
aS'colored'
p1822
aS'ahead'
p1823
aS'vegetarian'
p1824
aS'creepy'
p1825
aS'soldier'
p1826
aS'amount'
p1827
aS'advertising'
p1828
aS'helps'
p1829
aS'family'
p1830
aS'bordered'
p1831
aS'toys'
p1832
aS'chunks'
p1833
aS'spaghetti'
p1834
aS'Male'
p1835
aS'takes'
p1836
aS'contains'
p1837
aS'taken'
p1838
aS'bushes'
p1839
aS'propellers'
p1840
aS'St'
p1841
aS'mounted'
p1842
aS'grill'
p1843
aS'nine'
p1844
aS'parasol'
p1845
aS'pushes'
p1846
aS'wallet'
p1847
aS'pushed'
p1848
aS'cows'
p1849
aS'hamburgers'
p1850
aS'tries'
p1851
aS'a'
aS'workstation'
p1852
aS'chopsticks'
p1853
aS'crafts'
p1854
aS'banks'
p1855
aS'breads'
p1856
aS'egg'
p1857
aS'Horse'
p1858
aS'help'
p1859
aS'cyclists'
p1860
aS'held'
p1861
aS'carpeted'
p1862
aS'peanuts'
p1863
aS'evening'
p1864
aS'digging'
p1865
aS'nestled'
p1866
aS'food'
p1867
aS'doughnuts'
p1868
aS'cel'
p1869
aS'petted'
p1870
aS'cupcake'
p1871
aS'Victorian'
p1872
aS'sweeping'
p1873
aS'towering'
p1874
aS'fully'
p1875
aS'stopped'
p1876
aS'trailer'
p1877
aS'heavy'
p1878
aS'pork'
p1879
aS'positioned'
p1880
aS'beyond'
p1881
aS'event'
p1882
aS'bikers'
p1883
aS'walked'
p1884
aS'surrounded'
p1885
aS'safety'
p1886
aS'7'
aS'drink'
p1887
aS'protruding'
p1888
aS'dirt'
p1889
aS'pug'
p1890
aS'houses'
p1891
aS'base'
p1892
aS'put'
p1893
aS'loads'
p1894
aS'surfboarding'
p1895
aS'dishwasher'
p1896
aS'launch'
p1897
aS'Boston'
p1898
aS'caption'
p1899
aS'american'
p1900
aS'leading'
p1901
aS'ponies'
p1902
aS'reflected'
p1903
aS'hangs'
p1904
aS'florets'
p1905
aS'maple'
p1906
aS'horse'
p1907
aS'airborne'
p1908
aS'pinned'
p1909
aS'station'
p1910
aS'Delta'
p1911
aS'claim'
p1912
aS'scheme'
p1913
aS'banana'
p1914
aS'selling'
p1915
aS'grocery'
p1916
aS'grey'
p1917
aS'bride'
p1918
aS'toward'
p1919
aS'coleslaw'
p1920
aS'alongside'
p1921
aS'juice'
p1922
aS'steak'
p1923
aS'lid'
p1924
aS'lie'
p1925
aS'cave'
p1926
aS'officers'
p1927
aS'camouflage'
p1928
aS'lit'
p1929
aS'lip'
p1930
aS'burned'
p1931
aS'towards'
p1932
aS'bridle'
p1933
aS'eaten'
p1934
aS'The'
p1935
aS'Bridge'
p1936
aS'mobile'
p1937
aS'clear'
p1938
aS'clean'
p1939
aS'hips'
p1940
aS'league'
p1941
aS'booze'
p1942
aS'CD'
p1943
aS'coaster'
p1944
aS'scooter'
p1945
aS'French'
p1946
aS'Traffic'
p1947
aS'pretty'
p1948
aS'circle'
p1949
aS'trees'
p1950
aS'famous'
p1951
aS'pretending'
p1952
aS'competing'
p1953
aS'catches'
p1954
aS'catcher'
p1955
aS'gloves'
p1956
aS'double'
p1957
aS'throwing'
p1958
aS'close'
p1959
aS'pictures'
p1960
aS'Park'
p1961
aS'wok'
p1962
aS'probably'
p1963
aS'pictured'
p1964
aS'missing'
p1965
aS'spray'
p1966
aS'sprinkled'
p1967
aS'both'
p1968
aS'residential'
p1969
aS'stoplight'
p1970
aS'headed'
p1971
aS'Lights'
p1972
aS'badminton'
p1973
aS'Way'
p1974
aS'vessel'
p1975
aS'War'
p1976
aS'naps'
p1977
aS'Most'
p1978
aS'California'
p1979
aS'empty'
p1980
aS'Women'
p1981
aS'partly'
p1982
aS'packs'
p1983
aS'else'
p1984
aS'look'
p1985
aS'rope'
p1986
aS'while'
p1987
aS'match'
p1988
aS'fleet'
p1989
aS'animated'
p1990
aS'biking'
p1991
aS'guide'
p1992
aS'pack'
p1993
aS'reads'
p1994
aS'wildflowers'
p1995
aS'ready'
p1996
aS'fedora'
p1997
aS'alarm'
p1998
aS'grand'
p1999
aS'hallway'
p2000
aS'used'
p2001
aS'curbside'
p2002
aS'uses'
p2003
aS'cleaning'
p2004
aS'cityscape'
p2005
aS'older'
p2006
aS'docked'
p2007
aS'Dinner'
p2008
aS'grins'
p2009
aS'wedges'
p2010
aS'Girl'
p2011
aS'Living'
p2012
aS'quarters'
p2013
aS'roasted'
p2014
aS'$'
aS'cemetery'
p2015
aS'burrito'
p2016
aS'cherries'
p2017
aS'radiator'
p2018
aS'showing'
p2019
aS'game'
p2020
aS'wings'
p2021
aS'vests'
p2022
aS'Slices'
p2023
aS'oncoming'
p2024
aS'Sliced'
p2025
aS'hammer'
p2026
aS'sofa'
p2027
aS'sleigh'
p2028
aS'Nintendo'
p2029
aS'Little'
p2030
aS'cones'
p2031
aS'Vintage'
p2032
aS'some'
p2033
aS'lips'
p2034
aS'dilapidated'
p2035
aS'run'
p2036
aS'rub'
p2037
aS'rug'
p2038
aS'stem'
p2039
aS'step'
p2040
aS'stew'
p2041
aS'alleyway'
p2042
aS'smothered'
p2043
aS'shine'
p2044
aS'shiny'
p2045
aS'block'
p2046
aS'seeing'
p2047
aS'within'
p2048
aS'tofu'
p2049
aS'rolls'
p2050
aS'placing'
p2051
aS'Kitty'
p2052
aS'himself'
p2053
aS'thru'
p2054
aS'skull'
p2055
aS'Scissors'
p2056
aS'similar'
p2057
aS'adults'
p2058
aS'doesn'
p2059
aS'tongs'
p2060
aS'TV'
p2061
aS'nap'
p2062
aS'electrical'
p2063
aS'department'
p2064
aS'aprons'
p2065
aS'smiles'
p2066
aS'spectators'
p2067
aS'smiley'
p2068
aS'AT'
p2069
aS'Coca'
p2070
aS'formal'
p2071
aS'structure'
p2072
aS'dvd'
p2073
aS'An'
p2074
aS'As'
p2075
aS'At'
p2076
aS'berries'
p2077
aS'bedding'
p2078
aS'desserts'
p2079
aS'airliners'
p2080
aS'barbecue'
p2081
aS'compact'
p2082
aS'suits'
p2083
aS'shack'
p2084
aS'Not'
p2085
aS'suite'
p2086
aS'Canadian'
p2087
aS'kitty'
p2088
aS'wave'
p2089
aS'trough'
p2090
aS'cellular'
p2091
aS'telling'
p2092
aS'snowboards'
p2093
aS'button'
p2094
aS'queen'
p2095
aS'picket'
p2096
aS'boots'
p2097
aS'jump'
p2098
aS'booth'
p2099
aS'picked'
p2100
aS'sausage'
p2101
aS'cupcakes'
p2102
aS'plays'
p2103
aS'paintings'
p2104
aS'cell'
p2105
aS'Boys'
p2106
aS'rotten'
p2107
aS'poles'
p2108
aS';'
aS'America'
p2109
aS'shoreline'
p2110
aS'stance'
p2111
aS'commercial'
p2112
aS'raspberries'
p2113
aS'Green'
p2114
aS'deserts'
p2115
aS'Suitcases'
p2116
aS'Back'
p2117
aS'products'
p2118
aS'wig'
p2119
aS'examining'
p2120
aS'pitch'
p2121
aS'win'
p2122
aS'wii'
p2123
aS'wit'
p2124
aS'singing'
p2125
aS'cloud'
p2126
aS'strapped'
p2127
aS'remains'
p2128
aS'camera'
p2129
aS'crab'
p2130
aS'vehicle'
p2131
aS'hiding'
p2132
aS'reflects'
p2133
aS'formally'
p2134
aS'tangerine'
p2135
aS'surfs'
p2136
aS'crosses'
p2137
aS'arched'
p2138
aS'salad'
p2139
aS'crest'
p2140
aS'ride'
p2141
aS'donut'
p2142
aS'arches'
p2143
aS'crossed'
p2144
aS'meet'
p2145
aS'drops'
p2146
aS'pelican'
p2147
aS'control'
p2148
aS'shepherd'
p2149
aS'pulling'
p2150
aS'triangle'
p2151
aS'skirt'
p2152
aS'HIS'
p2153
aS'arrangement'
p2154
aS'located'
p2155
aS'bandana'
p2156
aS'circular'
p2157
aS'entree'
p2158
aS'farm'
p2159
aS'peeling'
p2160
aS'British'
p2161
aS'Doorway'
p2162
aS'belongings'
p2163
aS'While'
p2164
aS'corral'
p2165
aS'scoop'
p2166
aS'bakery'
p2167
aS'bathing'
p2168
aS'including'
p2169
aS'costume'
p2170
aS'during'
p2171
aS'Interior'
p2172
aS'volley'
p2173
aS'WITH'
p2174
aS'Multiple'
p2175
aS'Dunkin'
p2176
aS'inspecting'
p2177
aS'FRONT'
p2178
aS'surrounds'
p2179
aS'Two'
p2180
aS'pins'
p2181
aS'hands'
p2182
aS'front'
p2183
aS'snuggling'
p2184
aS'brocolli'
p2185
aS'slide'
p2186
aS'crossing'
p2187
aS'shaking'
p2188
aS'upward'
p2189
aS'globe'
p2190
aS'Liberty'
p2191
aS'multicolored'
p2192
aS'littered'
p2193
aS'playground'
p2194
aS'umbrella'
p2195
aS'wines'
p2196
aS'diagonal'
p2197
aS'attending'
p2198
aS'completely'
p2199
aS'route'
p2200
aS'timer'
p2201
aS'times'
p2202
aS'wading'
p2203
aS'spots'
p2204
aS'stump'
p2205
aS'bears'
p2206
aS'filthy'
p2207
aS'grow'
p2208
aS'wrapped'
p2209
aS'paved'
p2210
aS'fuzzy'
p2211
aS'herself'
p2212
aS'photograph'
p2213
aS'bed'
p2214
aS'bee'
p2215
aS'exhibit'
p2216
aS'lightly'
p2217
aS'carrots'
p2218
aS'portrait'
p2219
aS'need'
p2220
aS'border'
p2221
aS'bib'
p2222
aS'microphone'
p2223
aS'sprinkles'
p2224
aS'cranes'
p2225
aS'able'
p2226
aS'so'
p2227
aS'visor'
p2228
aS'coke'
p2229
aS'blades'
p2230
aS'sewing'
p2231
aS'camper'
p2232
aS'biplane'
p2233
aS'connected'
p2234
aS'expired'
p2235
aS'gallery'
p2236
aS'cellphone'
p2237
aS'scrambled'
p2238
aS'construction'
p2239
aS'gesture'
p2240
aS'businessman'
p2241
aS'indoor'
p2242
aS'crate'
p2243
aS'parked'
p2244
aS'soldiers'
p2245
aS'unfinished'
p2246
aS'tire'
p2247
aS'Surfer'
p2248
aS'Part'
p2249
aS'skateboards'
p2250
aS'sipping'
p2251
aS'tossed'
p2252
aS'Italian'
p2253
aS'gray'
p2254
aS'trucks'
p2255
aS'motorboat'
p2256
aS'overflowing'
p2257
aS'grab'
p2258
aS'spotted'
p2259
aS'hardwood'
p2260
aS'shake'
p2261
aS'Bicycles'
p2262
aS'computer'
p2263
aS'powder'
p2264
aS'written'
p2265
aS'tosses'
p2266
aS'tent'
p2267
aS'munching'
p2268
aS'buckets'
p2269
aS'kicking'
p2270
aS'key'
p2271
aS'police'
p2272
aS'hits'
p2273
aS'iPod'
p2274
aS'aqua'
p2275
aS'jersey'
p2276
aS'bricked'
p2277
aS'polka'
p2278
aS'int'
p2279
aS'slowly'
p2280
aS'treat'
p2281
aS'shoulders'
p2282
aS'circus'
p2283
aS'controlled'
p2284
aS'releasing'
p2285
aS'controller'
p2286
aS'World'
p2287
aS'kicks'
p2288
aS'smoking'
p2289
aS'And'
p2290
aS'external'
p2291
aS'Sepia'
p2292
aS'toothbrushes'
p2293
aS'surface'
p2294
aS'swinging'
p2295
aS'You'
p2296
aS'capture'
p2297
aS'balloon'
p2298
aS'Bear'
p2299
aS'campus'
p2300
aS'parts'
p2301
aS'speaker'
p2302
aS'underground'
p2303
aS'party'
p2304
aS'fireman'
p2305
aS'surfboard'
p2306
aS'i'
aS'well'
p2307
aS'awning'
p2308
aS'advertises'
p2309
aS'taller'
p2310
aS'savannah'
p2311
aS'batters'
p2312
aS'distant'
p2313
aS'Eggs'
p2314
aS'extends'
p2315
aS'balloons'
p2316
aS'kick'
p2317
aS'historic'
p2318
aS'propeller'
p2319
aS'intersection'
p2320
aS'sizes'
p2321
aS'candy'
p2322
aS'sized'
p2323
aS'page'
p2324
aS'likes'
p2325
aS'shed'
p2326
aS'library'
p2327
aS'home'
p2328
aS'projection'
p2329
aS'steaming'
p2330
aS'kettle'
p2331
aS'grinding'
p2332
aS'?'
aS'coated'
p2333
aS'medieval'
p2334
aS'reaching'
p2335
aS'bowling'
p2336
aS'US'
p2337
aS'rodeo'
p2338
aS'toppings'
p2339
aS'beige'
p2340
aS'cranberry'
p2341
aS'puppies'
p2342
aS'tongue'
p2343
aS'pastries'
p2344
aS'mushrooms'
p2345
aS'utility'
p2346
aS'CGI'
p2347
aS'clown'
p2348
aS'museum'
p2349
aS'inner'
p2350
aS'backhand'
p2351
aS'triangular'
p2352
aS'neutral'
p2353
aS'strawberries'
p2354
aS'courts'
p2355
aS'eat'
p2356
aS'he'
p2357
aS'Bowls'
p2358
aS'carriage'
p2359
aS'converted'
p2360
aS'limit'
p2361
aS'piece'
p2362
aS'display'
p2363
aS'marketplace'
p2364
aS'tissues'
p2365
aS'balcony'
p2366
aS'ingredients'
p2367
aS'fencing'
p2368
aS'star'
p2369
aS'stay'
p2370
aS'foil'
p2371
aS'friends'
p2372
aS'portion'
p2373
aS'Spanish'
p2374
aS'asian'
p2375
aS'consists'
p2376
aS'whose'
p2377
aS'remodeled'
p2378
aS'presents'
p2379
aS'murky'
p2380
aS'teaching'
p2381
aS'rescue'
p2382
aS'vase'
p2383
aS'icing'
p2384
aS'alpine'
p2385
aS'baking'
p2386
aS'clothed'
p2387
aS'uncooked'
p2388
aS'heading'
p2389
aS'clothes'
p2390
aS'force'
p2391
aS'quilt'
p2392
aS'warns'
p2393
aS'lavender'
p2394
aS'cactus'
p2395
aS'even'
p2396
aS'hazy'
p2397
aS'lights'
p2398
aS'new'
p2399
aS'net'
p2400
aS'helmets'
p2401
aS'pancakes'
p2402
aS'men'
p2403
aS'cardboard'
p2404
aS'dry'
p2405
aS'rests'
p2406
aS'piercing'
p2407
aS'taped'
p2408
aS'fix'
p2409
aS'slices'
p2410
aS'sliced'
p2411
aS'busses'
p2412
aS'guests'
p2413
aS'jackets'
p2414
aS'landscape'
p2415
aS'Piles'
p2416
aS'army'
p2417
aS'watering'
p2418
aS'arms'
p2419
aS'overhead'
p2420
aS'calm'
p2421
aS'type'
p2422
aS'tell'
p2423
aS'calf'
p2424
aS'warm'
p2425
aS'adult'
p2426
aS'V'
aS'ware'
p2427
aS'room'
p2428
aS'setup'
p2429
aS'roof'
p2430
aS'movies'
p2431
aS'obstacle'
p2432
aS'foliage'
p2433
aS'root'
p2434
aS'give'
p2435
aS'laughs'
p2436
aS'foods'
p2437
aS'shelving'
p2438
aS'scooters'
p2439
aS'waterfront'
p2440
aS'All'
p2441
aS'attempt'
p2442
aS'third'
p2443
aS'Blue'
p2444
aS'deck'
p2445
aS'keyboard'
p2446
aS'windshield'
p2447
aS'before'
p2448
aS'chihuahua'
p2449
aS'personal'
p2450
aS','
aS'crew'
p2451
aS'sprays'
p2452
aS'poised'
p2453
aS'combination'
p2454
aS'glazed'
p2455
aS'meat'
p2456
aS'India'
p2457
aS'leaned'
p2458
aS'roast'
p2459
aS'sliver'
p2460
aS'side'
p2461
aS'bone'
p2462
aS'mean'
p2463
aS'navy'
p2464
aS'enclosure'
p2465
aS'velvet'
p2466
aS'kiwis'
p2467
aS'turning'
p2468
aS'ascending'
p2469
aS'hoodie'
p2470
aS'Planes'
p2471
aS'aisle'
p2472
aS'messages'
p2473
aS'nurses'
p2474
aS'isn'
p2475
aS'boarders'
p2476
aS'features'
p2477
aS'hoop'
p2478
aS'lettuce'
p2479
aS'featured'
p2480
aS'floors'
p2481
aS'comforter'
p2482
aS'assortment'
p2483
aS'hood'
p2484
aS'hydrant'
p2485
aS'spinach'
p2486
aS'girls'
p2487
aS'bouncing'
p2488
aS'gym'
p2489
aS'streetlight'
p2490
aS'somewhat'
p2491
aS'BBQ'
p2492
aS'begins'
p2493
aS'distance'
p2494
aS'bits'
p2495
aS'preparation'
p2496
aS'silly'
p2497
aS'mini'
p2498
aS'palace'
p2499
aS'modern'
p2500
aS'seed'
p2501
aS'seen'
p2502
aS'seem'
p2503
aS'tells'
p2504
aS'stoplights'
p2505
aS'chest'
p2506
aS'donkeys'
p2507
aS'mashed'
p2508
aS'regular'
p2509
aS'assisting'
p2510
aS'don'
p2511
aS'medical'
p2512
aS'nighttime'
p2513
aS'dog'
p2514
aS'Single'
p2515
aS'points'
p2516
aS'pointy'
p2517
aS'dot'
p2518
aS'attempts'
p2519
aS'stepping'
p2520
aS'folded'
p2521
aS'sugar'
p2522
aS'celery'
p2523
aS'wearing'
p2524
aS'tiles'
p2525
aS'colorful'
p2526
aS'stop'
p2527
aS'coast'
p2528
aS'watermelon'
p2529
aS'tiled'
p2530
aS'bat'
p2531
aS'bar'
p2532
aS'fields'
p2533
aS'Washington'
p2534
aS'bay'
p2535
aS'bag'
p2536
aS'bad'
p2537
aS'discs'
p2538
aS'architecture'
p2539
aS'grilled'
p2540
aS'ears'
p2541
aS'lettering'
p2542
aS'fluffy'
p2543
aS'Somebody'
p2544
aS'sail'
p2545
aS'shaved'
p2546
aS'artificial'
p2547
aS'wetsuit'
p2548
aS'pets'
p2549
aS'sorts'
p2550
aS'C'
aS'wears'
p2551
aS'lotion'
p2552
aS'picking'
p2553
aS'stylized'
p2554
aS'McDonald'
p2555
aS'wandering'
p2556
aS'against'
p2557
aS'bookcase'
p2558
aS'height'
p2559
aS'loaded'
p2560
aS'puts'
p2561
aS'three'
p2562
aS'tiny'
p2563
aS'chatting'
p2564
aS'basil'
p2565
aS'basin'
p2566
aS'lovely'
p2567
aS'threw'
p2568
aS'mushroom'
p2569
aS'sunshine'
p2570
aS'tank'
p2571
aS'starts'
p2572
aS'ugly'
p2573
aS'near'
p2574
aS'melted'
p2575
aS'neat'
p2576
aS'balance'
p2577
aS'study'
p2578
aS'seven'
p2579
aS'cane'
p2580
aS'metropolitan'
p2581
aS'is'
p2582
aS'sushi'
p2583
aS'it'
p2584
aS'cans'
p2585
aS'in'
p2586
aS'mouse'
p2587
aS'if'
p2588
aS'grown'
p2589
aS'bottles'
p2590
aS'mitts'
p2591
aS'make'
p2592
aS'bottled'
p2593
aS'belly'
p2594
aS'vegetable'
p2595
aS'President'
p2596
aS'sidelines'
p2597
aS'grows'
p2598
aS'bells'
p2599
aS'bearded'
p2600
aS'browsing'
p2601
aS'kit'
p2602
aS'waterfall'
p2603
aS'garlic'
p2604
aS'VW'
p2605
aS'kid'
p2606
aS'butter'
p2607
aS'T'
aS'bedspread'
p2608
aS'materials'
p2609
aS'left'
p2610
aS'just'
p2611
aS'sporting'
p2612
aS'fighters'
p2613
aS'human'
p2614
aS'zoo'
p2615
aS'tattooed'
p2616
aS'yet'
p2617
aS'sunflower'
p2618
aS'character'
p2619
aS'Building'
p2620
aS'sailors'
p2621
aS'Half'
p2622
aS'background'
p2623
aS'forested'
p2624
aS'depicts'
p2625
aS'vanity'
p2626
aS'shoulder'
p2627
aS'performing'
p2628
aS'elderly'
p2629
aS'platters'
p2630
aS'winds'
p2631
aS'dense'
p2632
aS'carts'
p2633
aS'microwave'
p2634
aS'skateboarder'
p2635
aS'spewing'
p2636
aS'super'
p2637
aS'magazine'
p2638
aS'DVD'
p2639
aS'selfie'
p2640
aS'crochet'
p2641
aS'rearview'
p2642
aS'lies'
p2643
aS'parade'
p2644
aS'weathered'
p2645
aS'tennis'
p2646
aS'fork'
p2647
aS'Passengers'
p2648
aS'form'
p2649
aS'landing'
p2650
aS'diaper'
p2651
aS'Golden'
p2652
aS'pavilion'
p2653
aS'attached'
p2654
aS'tangerines'
p2655
aS'Parking'
p2656
aS'stages'
p2657
aS'Vases'
p2658
aS'sticks'
p2659
aS'classic'
p2660
aS'toss'
p2661
aS'covers'
p2662
aS'sticky'
p2663
aS'fashioned'
p2664
aS'muffins'
p2665
aS'sodas'
p2666
aS'marking'
p2667
aS'tossing'
p2668
aS'handed'
p2669
aS'digital'
p2670
aS'warehouse'
p2671
aS'ribbons'
p2672
aS'handicap'
p2673
aS'diet'
p2674
aS'stockings'
p2675
aS'pizzas'
p2676
aS'potato'
p2677
aS'Wii'
p2678
aS'jacket'
p2679
aS'safe'
p2680
aS'teeth'
p2681
aS'themed'
p2682
aS'skis'
p2683
aS'skin'
p2684
aS'mill'
p2685
aS'prop'
p2686
aS'milk'
p2687
aS'yummy'
p2688
aS'father'
p2689
aS'marks'
p2690
aS'abundance'
p2691
aS'smartphone'
p2692
aS'string'
p2693
aS'dim'
p2694
aS'limes'
p2695
aS'Clause'
p2696
aS'unopened'
p2697
aS'item'
p2698
aS'round'
p2699
aS'seasoning'
p2700
aS'corner'
p2701
aS'eating'
p2702
aS'skiiers'
p2703
aS'adds'
p2704
aS'Batter'
p2705
aS'vandalized'
p2706
aS'gazebo'
p2707
aS'jumps'
p2708
aS'filled'
p2709
aS'transportation'
p2710
aS'makeup'
p2711
aS'french'
p2712
aS'frosting'
p2713
aS'wait'
p2714
aS'box'
p2715
aS'boy'
p2716
aS'bow'
p2717
aS'teenage'
p2718
aS'Snowboarder'
p2719
aS'kayak'
p2720
aS'lamppost'
p2721
aS'pitchers'
p2722
aS'sharing'
p2723
aS'Ben'
p2724
aS'Bed'
p2725
aS'downtown'
p2726
aS'olive'
p2727
aS'blinds'
p2728
aS'bushels'
p2729
aS'fly'
p2730
aS'walled'
p2731
aS'soup'
p2732
aS'growing'
p2733
aS'making'
p2734
aS'arrive'
p2735
aS'bites'
p2736
aS'Children'
p2737
aS'crazy'
p2738
aS'sample'
p2739
aS'drawer'
p2740
aS'pink'
p2741
aS'Coke'
p2742
aS'ping'
p2743
aS'pine'
p2744
aS'skater'
p2745
aS'skates'
p2746
aS'tile'
p2747
aS'pathway'
p2748
aS'map'
p2749
aS'mat'
p2750
aS'may'
p2751
aS'fed'
p2752
aS'mac'
p2753
aS'designed'
p2754
aS'tablecloth'
p2755
aS'guys'
p2756
aS'man'
p2757
aS'neck'
p2758
aS'tale'
p2759
aS'jail'
p2760
aS'basket'
p2761
aS'tall'
p2762
aS'talk'
p2763
aS'cute'
p2764
aS'shoes'
p2765
aS'cathedral'
p2766
aS'pointed'
p2767
aS'cuts'
p2768
aS'marshmallows'
p2769
aS'group'
p2770
aS'monitor'
p2771
aS'smoothie'
p2772
aS'interesting'
p2773
aS'mail'
p2774
aS'main'
p2775
aS'tucked'
p2776
aS'views'
p2777
aS'lunch'
p2778
aS'touching'
p2779
aS'markings'
p2780
aS'She'
p2781
aS'safari'
p2782
aS'artist'
p2783
aS'arrows'
p2784
aS'rock'
p2785
aS'dries'
p2786
aS'elephants'
p2787
aS'signage'
p2788
aS'girl'
p2789
aS'morning'
p2790
aS'living'
p2791
aS'monster'
p2792
aS'Siamese'
p2793
aS'sideways'
p2794
aS'ajar'
p2795
aS'headband'
p2796
aS'underwear'
p2797
aS'language'
p2798
aS'headphones'
p2799
aS'thing'
p2800
aS'first'
p2801
aS'exotic'
p2802
aS'cheese'
p2803
aS'crib'
p2804
aS'Black'
p2805
aS'long'
p2806
aS'suspended'
p2807
aS'carry'
p2808
aS'cheesy'
p2809
aS'little'
p2810
aS'arch'
p2811
aS'vendors'
p2812
aS'plains'
p2813
aS'returns'
p2814
aS'speaking'
p2815
aS'eyes'
p2816
aS'eyed'
p2817
aS'blurred'
p2818
aS'11'
p2819
aS'10'
p2820
aS'12'
p2821
aS'sailing'
p2822
aS'knives'
p2823
aS'were'
p2824
aS'gigantic'
p2825
aS'tractor'
p2826
aS'gathering'
p2827
aS'dash'
p2828
aS'winding'
p2829
aS'pastry'
p2830
aS'occupied'
p2831
aS'speakers'
p2832
aS'hooded'
p2833
aS'interior'
p2834
aS'performance'
p2835
aS'handbag'
p2836
aS'channel'
p2837
aS'normal'
p2838
aS'track'
p2839
aS'cheesecake'
p2840
aS'Cattle'
p2841
aS'sheets'
p2842
aS'pair'
p2843
aS'fills'
p2844
aS'napkin'
p2845
aS'grassland'
p2846
aS'shop'
p2847
aS'shot'
p2848
aS'show'
p2849
aS'contemporary'
p2850
aS'bedside'
p2851
aS'shoe'
p2852
aS'Gate'
p2853
aS'curled'
p2854
aS'We'
p2855
aS'stormy'
p2856
aS'honey'
p2857
aS'cheeseburger'
p2858
aS'behind'
p2859
aS'black'
p2860
aS'shutters'
p2861
aS'plums'
p2862
aS'get'
p2863
aS'Large'
p2864
aS'spraying'
p2865
aS'nearly'
p2866
aS'keyboards'
p2867
aS'median'
p2868
aS'yield'
p2869
aS'across'
p2870
aS'Corner'
p2871
aS'finishing'
p2872
aS'flamingos'
p2873
aS'milling'
p2874
aS'seat'
p2875
aS'seal'
p2876
aS'parent'
p2877
aS'camping'
p2878
aS'ornament'
p2879
aS'label'
p2880
aS'pump'
p2881
aS'chews'
p2882
aS'reading'
p2883
aS'checks'
p2884
aS'tub'
p2885
aS'rugby'
p2886
aS'restroom'
p2887
aS'tour'
p2888
aS'patrons'
p2889
aS'dated'
p2890
aS'holders'
p2891
aS'among'
p2892
aS'stretches'
p2893
aS'cabinetry'
p2894
aS'stretched'
p2895
aS'Herd'
p2896
aS'unusual'
p2897
aS'mark'
p2898
aS'tug'
p2899
aS'shopping'
p2900
aS'squash'
p2901
aS'dangerous'
p2902
aS'laptops'
p2903
aS'wake'
p2904
aS'Action'
p2905
aS'those'
p2906
aS'sound'
p2907
aS'stacked'
p2908
aS'To'
p2909
aS'many'
p2910
aS'investigating'
p2911
aS'rubbing'
p2912
aS'coffee'
p2913
aS'sleeping'
p2914
aS'middle'
p2915
aS'pressing'
p2916
aS'bags'
p2917
aS'different'
p2918
aS'paw'
p2919
aS'pay'
p2920
aS'same'
p2921
aS'Plane'
p2922
aS'speech'
p2923
aS'pan'
p2924
aS'exhaust'
p2925
aS'extended'
p2926
aS'Polar'
p2927
aS'commode'
p2928
aS'seagulls'
p2929
aS'companion'
p2930
aS'running'
p2931
aS'stairwell'
p2932
aS'climbing'
p2933
aS'drain'
p2934
aS'bicyclists'
p2935
aS'bottle'
p2936
aS'gates'
p2937
aS'outdoor'
p2938
aS'money'
p2939
aS'gated'
p2940
aS'Sandwich'
p2941
aS'grouped'
p2942
aS'pile'
p2943
aS'4'
aS'docks'
p2944
aS'mom'
p2945
aS'railroad'
p2946
aS'aiming'
p2947
aS'blankets'
p2948
aS'rocky'
p2949
aS'vertically'
p2950
aS'vending'
p2951
aS'serves'
p2952
aS'server'
p2953
aS'facing'
p2954
aS'audience'
p2955
aS'London'
p2956
aS'either'
p2957
aS'served'
p2958
aS'sneaker'
p2959
aS'doll'
p2960
aS'images'
p2961
aS'matching'
p2962
aS'Men'
p2963
aS'knife'
p2964
aS'measuring'
p2965
aS'raincoat'
p2966
aS'broken'
p2967
aS'roaming'
p2968
aS'helping'
p2969
aS'island'
p2970
aS'mixer'
p2971
aS'airline'
p2972
aS'pockets'
p2973
aS'road'
p2974
aS'lands'
p2975
aS'spreading'
p2976
aS'Bowl'
p2977
aS'airlines'
p2978
aS'harness'
p2979
aS'strip'
p2980
aS'skillet'
p2981
aS'Obama'
p2982
aS'enough'
p2983
aS'buggy'
p2984
aS'tripod'
p2985
aS'wiping'
p2986
aS'walkway'
p2987
aS'spice'
p2988
aS'arranged'
p2989
aS'strawberry'
p2990
aS'peeking'
p2991
aS'suitcase'
p2992
aS'Ave'
p2993
aS'deer'
p2994
aS'deep'
p2995
aS'fellow'
p2996
aS'file'
p2997
aS'cables'
p2998
aS'film'
p2999
aS'fill'
p3000
aS'personnel'
p3001
aS'drivers'
p3002
aS'field'
p3003
aS'outfield'
p3004
aS'lapel'
p3005
aS'students'
p3006
aS'decorated'
p3007
aS'remote'
p3008
aS'starting'
p3009
aS'suburban'
p3010
aS'dollar'
p3011
aS'talks'
p3012
aS'fixtures'
p3013
aS'children'
p3014
aS'captivity'
p3015
aS'enjoying'
p3016
aS'sitting'
p3017
aS'fall'
p3018
aS'trails'
p3019
aS'washer'
p3020
aS'washing'
p3021
aS'trio'
p3022
aS'portable'
p3023
aS'grabs'
p3024
aS'knitted'
p3025
aS'go'
p3026
aS'Only'
p3027
aS'perspective'
p3028
aS'ribbon'
p3029
aS'stool'
p3030
aS'public'
p3031
aS'tattoos'
p3032
aS'surfer'
p3033
aS'operating'
p3034
aS'strewn'
p3035
aS'Avenue'
p3036
aS'stretching'
p3037
aS'storefront'
p3038
aS'sofas'
p3039
aS'airport'
p3040
aS'lasagna'
p3041
aS'narrow'
p3042
aS'fenced'
p3043
aS'buses'
p3044
aS'transit'
p3045
aS'eye'
p3046
aS'texting'
p3047
aS'two'
p3048
aS'splash'
p3049
aS'raft'
p3050
aS'engaged'
p3051
aS'American'
p3052
aS'lemons'
p3053
aS'town'
p3054
aS'cluster'
p3055
aS'entertainment'
p3056
aS'guards'
p3057
aS'Towels'
p3058
aS'Photo'
p3059
aS'marble'
p3060
aS'shark'
p3061
aS'hamburger'
p3062
aS'share'
p3063
aS'numbers'
p3064
aS'sharp'
p3065
aS'!'
aS'needs'
p3066
aS'stir'
p3067
aS'Dog'
p3068
aS'blood'
p3069
aS'coming'
p3070
aS'bloom'
p3071
aS'chute'
p3072
aS'orchard'
p3073
aS'crowded'
p3074
aS'coat'
p3075
aS'toiletries'
p3076
aS'eats'
p3077
aS'dragon'
p3078
aS'deserted'
p3079
aS'coal'
p3080
aS'playing'
p3081
aS'What'
p3082
aS'rounded'
p3083
aS'already'
p3084
aS'dough'
p3085
aS'lava'
p3086
aS'handheld'
p3087
aS'late'
p3088
aS'pad'
p3089
aS'snowsuit'
p3090
aS'dolls'
p3091
aS'good'
p3092
aS'males'
p3093
aS'walls'
p3094
aS'huddle'
p3095
aS'pregnant'
p3096
aS'Laptop'
p3097
aS'goofy'
p3098
aS'positions'
p3099
aS'biscuits'
p3100
aS'everyone'
p3101
aS'delicious'
p3102
aS'house'
p3103
aS'fish'
p3104
aS'hard'
p3105
aS'engaging'
p3106
aS'oil'
p3107
aS'fist'
p3108
aS'backpacks'
p3109
aS'flower'
p3110
aS'pigeon'
p3111
aS'projected'
p3112
aS'Flag'
p3113
aS'print'
p3114
aS'foreground'
p3115
aS'crouched'
p3116
aS'bulls'
p3117
aS'crouches'
p3118
aS'members'
p3119
aS'backed'
p3120
aS'beginning'
p3121
aS'faucet'
p3122
aS'computers'
p3123
aS'barber'
p3124
aS'pilots'
p3125
aS'done'
p3126
aS'gripping'
p3127
aS'razor'
p3128
aS'Airplanes'
p3129
aS'least'
p3130
aS'paint'
p3131
aS'mama'
p3132
aS'compartment'
p3133
aS'para'
p3134
aS'drapes'
p3135
aS'needle'
p3136
aS'park'
p3137
aS'draped'
p3138
aS'part'
p3139
aS'Buses'
p3140
aS'curtains'
p3141
aS'ages'
p3142
aS'aged'
p3143
aS'backseat'
p3144
aS'built'
p3145
aS'dancing'
p3146
aS'couch'
p3147
aS'lifts'
p3148
aS'Kid'
p3149
aS'rink'
p3150
aS'leaking'
p3151
aS'eggs'
p3152
aS'salmon'
p3153
aS'most'
p3154
aS'moss'
p3155
aS'Fresh'
p3156
aS'extremely'
p3157
aS'refrigerator'
p3158
aS'cramped'
p3159
aS'scattered'
p3160
aS'hugging'
p3161
aS'perches'
p3162
aS'hillside'
p3163
aS'crocheted'
p3164
aS'perched'
p3165
aS'fine'
p3166
aS'find'
p3167
aS'giant'
p3168
aS'8'
aS'batter'
p3169
aS'breast'
p3170
aS'sill'
p3171
aS'motorcycles'
p3172
aS'remove'
p3173
aS'Female'
p3174
aS'doubles'
p3175
aS'cole'
p3176
aS'opposing'
p3177
aS'lion'
p3178
aS'individual'
p3179
aS'quiche'
p3180
aS'burner'
p3181
aS'halves'
p3182
aS'fans'
p3183
aS'meal'
p3184
aS'historical'
p3185
aS'aircraft'
p3186
aS'floats'
p3187
aS'folding'
p3188
aS'restaurant'
p3189
aS'archway'
p3190
aS'foreign'
p3191
aS'focused'
p3192
aS'cakes'
p3193
aS'point'
p3194
aS'simple'
p3195
aS'newborn'
p3196
aS'Kites'
p3197
aS'patiently'
p3198
aS'dropping'
p3199
aS'peppers'
p3200
aS'meeting'
p3201
aS'vans'
p3202
aS'assorted'
p3203
aS'pencils'
p3204
aS'gas'
p3205
aS'fur'
p3206
aS'metro'
p3207
aS'grains'
p3208
aS'bill'
p3209
aS'tiered'
p3210
aS'fun'
p3211
aS'larger'
p3212
aS'century'
p3213
aS'decoration'
p3214
aS'itself'
p3215
aS'stoves'
p3216
aS'hydrants'
p3217
aS'butcher'
p3218
aS'windmill'
p3219
aS'strips'
p3220
aS'keys'
p3221
aS'leopard'
p3222
aS'desks'
p3223
aS'moment'
p3224
aS'stripe'
p3225
aS'sandals'
p3226
aS'beanie'
p3227
aS'shaded'
p3228
aS'laden'
p3229
aS'flags'
p3230
aS'entry'
p3231
aS'paneling'
p3232
aS'eyeglasses'
p3233
aS'shape'
p3234
aS'letting'
p3235
aS'cut'
p3236
aS'cup'
p3237
aS'source'
p3238
aS'kites'
p3239
aS'snap'
p3240
aS'excited'
p3241
aS'unloading'
p3242
aS'bin'
p3243
aS'big'
p3244
aS'Harley'
p3245
aS'bit'
p3246
aS'follows'
p3247
aS'glove'
p3248
aS'bamboo'
p3249
aS'circles'
p3250
aS'back'
p3251
aS'ornaments'
p3252
aS'mirror'
p3253
aS'candle'
p3254
aS'discarded'
p3255
aS'scale'
p3256
aS'jewelry'
p3257
aS'pet'
p3258
aS'pen'
p3259
aS'connecting'
p3260
aS'nose'
p3261
aS'Boy'
p3262
aS'costumes'
p3263
aS'lounges'
p3264
aS'costumed'
p3265
aS'moored'
p3266
aS'goods'
p3267
aS'piles'
p3268
aS'oatmeal'
p3269
aS'piled'
p3270
aS'daisies'
p3271
aS'framed'
p3272
aS'pepperoni'
p3273
aS'frog'
p3274
aS'frames'
p3275
aS'downhill'
p3276
aS'jockey'
p3277
aS'Meal'
p3278
aS'homemade'
p3279
aS'forward'
p3280
aS'opponent'
p3281
aS'adjusting'
p3282
aS'calico'
p3283
aS'lifeguard'
p3284
aS'planes'
p3285
aS'jumbo'
p3286
aS'sort'
p3287
aS'geese'
p3288
aS'mopeds'
p3289
aS'Cross'
p3290
aS'single'
p3291
aS'necks'
p3292
aS'New'
p3293
aS'freeway'
p3294
aS'plugged'
p3295
aS'Mac'
p3296
aS'mayonnaise'
p3297
aS'Man'
p3298
aS'brushing'
p3299
aS'firetruck'
p3300
aS'lens'
p3301
aS'prepares'
p3302
aS'depicting'
p3303
aS'desert'
p3304
aS'mantel'
p3305
aS'overlooking'
p3306
aS'vehicles'
p3307
aS'admiring'
p3308
aS'cooked'
p3309
aS'presenting'
p3310
aS'stroller'
p3311
aS'Someone'
p3312
aS'peanut'
p3313
aS'frisbees'
p3314
aS'skiier'
p3315
aS'random'
p3316
aS'dessert'
p3317
aS'huddled'
p3318
aS'putting'
p3319
aS'entire'
p3320
aS'choppy'
p3321
aS'lapse'
p3322
aS'ovens'
p3323
aS'crow'
p3324
aS'Lone'
p3325
aS'ham'
p3326
aS'Long'
p3327
aS'power'
p3328
aS'pipes'
p3329
aS'paddle'
p3330
aS'napkins'
p3331
aS'exercise'
p3332
aS'body'
p3333
aS'auditorium'
p3334
aS'packing'
p3335
aS'objects'
p3336
aS'sink'
p3337
aS'others'
p3338
aS'sing'
p3339
aS'jockeys'
p3340
aS'extreme'
p3341
aS'stalks'
p3342
aS'30'
p3343
aS'sword'
p3344
aS'climb'
p3345
aS'named'
p3346
aS'baskets'
p3347
aS'oval'
p3348
aS'lime'
p3349
aS'taxiing'
p3350
aS'Statue'
p3351
aS'themselves'
p3352
aS'trail'
p3353
aS'train'
p3354
aS'arranging'
p3355
aS'tunnel'
p3356
aS'carrot'
p3357
aS'industrial'
p3358
aS'snacks'
p3359
aS'sanding'
p3360
aS'native'
p3361
aS'lamb'
p3362
aS'Commuter'
p3363
aS'holds'
p3364
aS'lamp'
p3365
aS'forest'
p3366
aS'onlookers'
p3367
aS'profile'
p3368
aS'buildings'
p3369
aS'waters'
p3370
aS'collection'
p3371
aS'mixed'
p3372
aS'cuddling'
p3373
aS'chasing'
p3374
aS'lines'
p3375
aS'liner'
p3376
aS'linen'
p3377
aS'lined'
p3378
aS'unmade'
p3379
aS'meter'
p3380
aS'symbols'
p3381
aS'horns'
p3382
aS'bunch'
p3383
aS'squatting'
p3384
aS'dad'
p3385
aS'cutting'
p3386
aS'Mother'
p3387
aS'day'
p3388
aS'stunts'
p3389
aS'gazing'
p3390
aS'moped'
p3391
aS'pantry'
p3392
aS'sweatshirt'
p3393
aS'mats'
p3394
aS'electronics'
p3395
aS'windsurfing'
p3396
aS'red'
p3397
aS'duffle'
p3398
aS'approaches'
p3399
aS'retriever'
p3400
aS'backwards'
p3401
aS'yard'
p3402
aS'shells'
p3403
aS'skateboard'
p3404
aS'barriers'
p3405
aS'wrist'
p3406
aS'retail'
p3407
aS'sprawled'
p3408
aS'ancient'
p3409
aS'monkey'
p3410
aS'pots'
p3411
aS'chases'
p3412
aS'liquor'
p3413
aS'cabin'
p3414
aS'gear'
p3415
aS'bulldog'
p3416
aS'dreary'
p3417
aS'foamy'
p3418
aS'furnishings'
p3419
aS'nuzzling'
p3420
aS'tidy'
p3421
aS'comfortable'
p3422
aS'have'
p3423
aS'curved'
p3424
aS'apparently'
p3425
aS'sidecar'
p3426
aS'noodles'
p3427
aS'Couple'
p3428
aS'parks'
p3429
aS'mix'
p3430
aS'Santa'
p3431
aS'eight'
p3432
aS'gather'
p3433
aS'Some'
p3434
aS'workspace'
p3435
aS'occasion'
p3436
aS'skinny'
p3437
aS'selection'
p3438
aS'kite'
p3439
aS'text'
p3440
aS'Small'
p3441
aS'STREET'
p3442
aS'thicket'
p3443
aS'wear'
p3444
aS'controls'
p3445
aS'York'
p3446
aS'photographs'
p3447
aS'beat'
p3448
aS'photography'
p3449
aS'stripes'
p3450
aS'bear'
p3451
aS'beam'
p3452
aS'bean'
p3453
aS'beak'
p3454
aS'striped'
p3455
aS'areas'
p3456
aS'teams'
p3457
aS'Bright'
p3458
aS'Broadway'
p3459
aS'cycles'
p3460
aS'puddle'
p3461
aS'cruise'
p3462
aS'Various'
p3463
aS'racket'
p3464
aS'awaits'
p3465
aS'Hawaiian'
p3466
aS'attempting'
p3467
aS'clearing'
p3468
aS'sails'
p3469
aS'purses'
p3470
aS'hammock'
p3471
aS'progress'
p3472
aS'cauliflower'
p3473
aS'deliver'
p3474
aS'S'
aS'Smoke'
p3475
aS'outer'
p3476
aS'taking'
p3477
aS'boulders'
p3478
aS'busted'
p3479
aS'swim'
p3480
aS'passing'
p3481
aS'otherwise'
p3482
aS'vent'
p3483
aS'notebooks'
p3484
aS'statues'
p3485
aS'gone'
p3486
aS'denim'
p3487
aS'bikini'
p3488
aS'laugh'
p3489
aS'pouring'
p3490
aS'USA'
p3491
aS'muddy'
p3492
aS'Oranges'
p3493
aS'seasoned'
p3494
aS'curtain'
p3495
aS'angled'
p3496
aS'stationed'
p3497
aS'preforming'
p3498
aS'finished'
p3499
aS'sausages'
p3500
aS'bull'
p3501
aS'Professional'
p3502
aS'homes'
p3503
aS'multi'
p3504
aS'plaid'
p3505
aS'plain'
p3506
aS'as'
p3507
aS'Elderly'
p3508
aS'rectangular'
p3509
aS'hoagie'
p3510
aS'carved'
p3511
aS'almost'
p3512
aS'Beach'
p3513
aS'shuttle'
p3514
aS'material'
p3515
aS'faces'
p3516
aS'Airport'
p3517
aS'center'
p3518
aS'sweets'
p3519
aS'kiteboarding'
p3520
aS'sets'
p3521
aS'position'
p3522
aS'stores'
p3523
aS'stored'
p3524
aS'Krispy'
p3525
aS'seats'
p3526
aS'Zebras'
p3527
aS'onward'
p3528
aS'lake'
p3529
aS'bench'
p3530
aS'smart'
p3531
aS'dryer'
p3532
aS'rumpled'
p3533
aS'like'
p3534
aS'chick'
p3535
aS'works'
p3536
aS'soft'
p3537
aS'hair'
p3538
aS'paddock'
p3539
aS'shrub'
p3540
aS'shelter'
p3541
aS'chains'
p3542
aS'pepper'
p3543
aS'hose'
p3544
aS'Baked'
p3545
aS'panel'
p3546
aS'gifts'
p3547
aS'about'
p3548
aS'boards'
p3549
aS'socks'
p3550
aS'guard'
p3551
aS'female'
p3552
aS'burger'
p3553
aS'stainless'
p3554
aS'vegetables'
p3555
aS'Child'
p3556
aS'Carrots'
p3557
aS'buy'
p3558
aS'bus'
p3559
aS'brand'
p3560
aS'but'
p3561
aS'landscaping'
p3562
aS'bun'
p3563
aS'bookshelf'
p3564
aS'bug'
p3565
aS'partially'
p3566
aS'tater'
p3567
aS'Wall'
p3568
aS'flip'
p3569
aS'casts'
p3570
aS'minutes'
p3571
aS'skating'
p3572
aS'Bathroom'
p3573
aS'pin'
p3574
aS'pic'
p3575
aS'pie'
p3576
aS'pig'
p3577
aS'tabletop'
p3578
aS'shooting'
p3579
aS'pit'
p3580
aS'dressed'
p3581
aS'oak'
p3582
aS'sandy'
p3583
aS'ledge'
p3584
aS'granite'
p3585
aS'dresses'
p3586
aS'dresser'
p3587
aS'resembles'
p3588
aS'bundle'
p3589
aS'baked'
p3590
aS'hats'
p3591
aS'sleek'
p3592
aS'sleep'
p3593
aS'assembled'
p3594
aS'trolley'
p3595
aS'feeding'
p3596
aS'patches'
p3597
aS'glider'
p3598
aS'under'
p3599
aS'Workers'
p3600
aS'rise'
p3601
aS'Baby'
p3602
aS'every'
p3603
aS'fireplace'
p3604
aS'school'
p3605
aS'motorcyclist'
p3606
aS'guiding'
p3607
aS'enjoy'
p3608
aS'bicycle'
p3609
aS'feathers'
p3610
aS'frosted'
p3611
aS'surrounding'
p3612
aS'street'
p3613
aS'shining'
p3614
aS'blue'
p3615
aS'This'
p3616
aS'blur'
p3617
aS'supplies'
p3618
aS'ramps'
p3619
aS'studio'
p3620
aS'path'
p3621
aS'stares'
p3622
aS'mozzarella'
p3623
aS'luggage'
p3624
aS'leaves'
p3625
aS'Pieces'
p3626
aS'prints'
p3627
aS'Group'
p3628
aS'straw'
p3629
aS'strap'
p3630
aS'visible'
p3631
aS'meats'
p3632
aS'swings'
p3633
aS'would'
p3634
aS'hospital'
p3635
aS'Donuts'
p3636
aS'phone'
p3637
aS'must'
p3638
aS'shoot'
p3639
aS'my'
p3640
aS'decorative'
p3641
aS'gadgets'
p3642
aS'jetliner'
p3643
aS'keep'
p3644
aS'Banana'
p3645
aS'ceremony'
p3646
aS'end'
p3647
aS'bunk'
p3648
aS'returning'
p3649
aS'buns'
p3650
aS'adjacent'
p3651
aS'gate'
p3652
aS'charging'
p3653
aS'pokes'
p3654
aS'mouths'
p3655
aS'mess'
p3656
aS'jumping'
p3657
aS'biting'
p3658
aS'salsa'
p3659
aS'parallel'
p3660
aS'amid'
p3661
aS'Japanese'
p3662
aS'outdated'
p3663
aS'upside'
p3664
aS'jungle'
p3665
aS'enter'
p3666
aS'over'
p3667
aS'underside'
p3668
aS'oven'
p3669
aS'forehead'
p3670
aS'boxing'
p3671
aS'Here'
p3672
aS'writing'
p3673
aS'destroyed'
p3674
aS'waffles'
p3675
aS'Kids'
p3676
aS'tourist'
p3677
aS'shadows'
p3678
aS'den'
p3679
aS'potatoes'
p3680
aS'Four'
p3681
aS'filling'
p3682
aS'each'
p3683
aS'wheel'
p3684
aS'signing'
p3685
aS'hanger'
p3686
aS'cloths'
p3687
aS'moose'
p3688
aS'waffle'
p3689
aS'celebrating'
p3690
aS'magnets'
p3691
aS'Room'
p3692
aS'driving'
p3693
aS'haired'
p3694
aS'motel'
p3695
aS'washed'
p3696
aS'laid'
p3697
aS'got'
p3698
aS'newly'
p3699
aS'hang'
p3700
aS'free'
p3701
aS'formation'
p3702
aS'evil'
p3703
aS'W'
aS'Mickey'
p3704
aS'grasses'
p3705
aS'outfits'
p3706
aS'soda'
p3707
aS'onto'
p3708
aS'gazelle'
p3709
aS'galley'
p3710
aS'wrapper'
p3711
aS'scissors'
p3712
aS'toy'
p3713
aS'their'
p3714
aS'top'
p3715
aS'tow'
p3716
aS'ton'
p3717
aS'too'
p3718
aS'urban'
p3719
aS'ceiling'
p3720
aS'tool'
p3721
aS'brushes'
p3722
aS'serve'
p3723
aS'took'
p3724
aS'western'
p3725
aS'brushed'
p3726
aS'reclining'
p3727
aS'tourists'
p3728
aS'beard'
p3729
aS'bridge'
p3730
aS'fashion'
p3731
aS'ram'
p3732
aS'talking'
p3733
aS'rat'
p3734
aS'kiteboard'
p3735
aS'leafy'
p3736
aS'-'
aS'snow'
p3737
aS'hatch'
p3738
aS'rides'
p3739
aS'rider'
p3740
aS'though'
p3741
aS'desolate'
p3742
aS'plenty'
p3743
aS'coin'
p3744
aS'glow'
p3745
aS'peers'
p3746
aS'treats'
p3747
aS'partition'
p3748
aS'metal'
p3749
aS'jalapenos'
p3750
aS'storm'
p3751
aS'pineapple'
p3752
aS'Umbrellas'
p3753
aS'rugs'
p3754
aS'colors'
p3755
aS'radio'
p3756
aS'earth'
p3757
aS'Big'
p3758
aS'athletic'
p3759
aS'lodge'
p3760
aS'highchair'
p3761
aS'mixture'
p3762
aS'sunglasses'
p3763
aS'watch'
p3764
aS'wedding'
p3765
aS'frying'
p3766
aS'appetizers'
p3767
aS'beads'
p3768
aS'rowing'
p3769
aS'licking'
p3770
aS'plush'
p3771
aS'shots'
p3772
aS'transporting'
p3773
aS'Lego'
p3774
aS'nut'
p3775
aS'jerseys'
p3776
aS'Tourists'
p3777
aS'mud'
p3778
aS'mug'
p3779
aS'finger'
p3780
aS'approach'
p3781
aS'herding'
p3782
aS'Tree'
p3783
aS'toothbrush'
p3784
aS'aquarium'
p3785
aS'news'
p3786
aS'flowering'
p3787
aS'Surfers'
p3788
aS'faced'
p3789
aS'jelly'
p3790
aS'participating'
p3791
aS'players'
p3792
aS'layered'
p3793
aS'games'
p3794
aS'cherry'
p3795
aS'towels'
p3796
aS'hilly'
p3797
aS'conference'
p3798
aS'bathroom'
p3799
aS'beef'
p3800
aS'ropes'
p3801
aS'been'
p3802
aS'quickly'
p3803
aS'submarine'
p3804
aS'beer'
p3805
aS'spread'
p3806
aS'roped'
p3807
aS'containers'
p3808
aS'loft'
p3809
aS'affixed'
p3810
aS'craft'
p3811
aS'catch'
p3812
aS'glides'
p3813
aS'teapot'
p3814
aS'cracker'
p3815
aS'n'
aS'dashboard'
p3816
aS'stopping'
p3817
aS'cracked'
p3818
aS'handrail'
p3819
aS'broth'
p3820
aS'accessories'
p3821
aS'Horses'
p3822
aS'containing'
p3823
aS'Soccer'
p3824
aS'beside'
p3825
aS'complex'
p3826
aS'several'
p3827
aS'youth'
p3828
aS'pick'
p3829
aS'characters'
p3830
aS'cycle'
p3831
aS'boxes'
p3832
aS'ocean'
p3833
aS'mother'
p3834
aS'hearts'
p3835
aS'jean'
p3836
aS'snowman'
p3837
aS'Lots'
p3838
aS'laptop'
p3839
aS'followed'
p3840
aS'furry'
p3841
aS'teenager'
p3842
aS'Wine'
p3843
aS'turquoise'
p3844
aS'casting'
p3845
aS'mounds'
p3846
aS'descending'
p3847
aS'judge'
p3848
aS'burnt'
p3849
aS'apart'
p3850
aS'melting'
p3851
aS'appearing'
p3852
aS'gift'
p3853
aS'officer'
p3854
aS'hung'
p3855
aS'grizzly'
p3856
aS'petting'
p3857
aS'meters'
p3858
aS'bins'
p3859
aS'ear'
p3860
aS'ice'
p3861
aS'rhino'
p3862
aS'everything'
p3863
aS'icy'
p3864
aS'christmas'
p3865
aS'He'
p3866
aS'cord'
p3867
aS'Pedestrians'
p3868
aS'corn'
p3869
aS'lamps'
p3870
aS'garnished'
p3871
aS'plug'
p3872
aS'cowboy'
p3873
aS'surround'
p3874
aS'dinner'
p3875
aS'Birds'
p3876
aS'destination'
p3877
aS'bath'
p3878
aS'bats'
p3879
aS'cafeteria'
p3880
aS'cubicle'
p3881
aS'sunlight'
p3882
aS'stuck'
p3883
aS'towing'
p3884
aS'Closeup'
p3885
aS'head'
p3886
aS'medium'
p3887
aS'6'
aS'wireless'
p3888
aS'hear'
p3889
aS'removed'
p3890
aS'chests'
p3891
aS'mannequins'
p3892
aS'decorate'
p3893
aS'urn'
p3894
aS'adorn'
p3895
aS'trim'
p3896
aS'brightly'
p3897
aS'barrels'
p3898
aS'diamond'
p3899
aS'shines'
p3900
aS'check'
p3901
aS'High'
p3902
aS'outstretched'
p3903
aS'no'
p3904
aS'caboose'
p3905
aS'when'
p3906
aS'tin'
p3907
aS'setting'
p3908
aS'papers'
p3909
aS'tie'
p3910
aS'depot'
p3911
aS'evergreen'
p3912
aS'picture'
p3913
aS'Double'
p3914
aS'football'
p3915
aS'miscellaneous'
p3916
aS'trailers'
p3917
aS'rising'
p3918
aS'Happy'
p3919
aS'younger'
p3920
aS'radishes'
p3921
aS'bullet'
p3922
aS'landed'
p3923
aS'serious'
p3924
aS'stacks'
p3925
aS'coach'
p3926
aS'varying'
p3927
aS'rod'
p3928
aS'focus'
p3929
aS'leads'
p3930
aS'displaying'
p3931
aS'row'
p3932
aS'protest'
p3933
aS'environment'
p3934
aS'flowered'
p3935
aS'melon'
p3936
aS'stove'
p3937
aS'artwork'
p3938
aS'cook'
p3939
aS'flavored'
p3940
aS'clouds'
p3941
aS'couches'
p3942
aS'level'
p3943
aS'cloudy'
p3944
aS'says'
p3945
aS'dried'
p3946
aS'takeoff'
p3947
aS'bake'
p3948
aS'port'
p3949
aS'Red'
p3950
aS'drinks'
p3951
aS'stately'
p3952
aS'unripe'
p3953
aS'spire'
p3954
aS'tarmac'
p3955
aS'goes'
p3956
aS'hairy'
p3957
aS'water'
p3958
aS'baseball'
p3959
aS'groups'
p3960
aS'healthy'
p3961
aS'clutching'
p3962
aS'cinnamon'
p3963
aS'weird'
p3964
aS'tuxedo'
p3965
aS'handled'
p3966
aS'sports'
p3967
aS'handles'
p3968
aS'handler'
p3969
aS'prey'
p3970
aS'today'
p3971
aS'conductor'
p3972
aS'These'
p3973
aS'chocolate'
p3974
aS'fuel'
p3975
aS'beers'
p3976
aS'Time'
p3977
aS'cases'
p3978
aS'states'
p3979
aS'Family'
p3980
aS'German'
p3981
aS'modified'
p3982
aS'ferry'
p3983
aS'meatball'
p3984
aS'pickle'
p3985
aS'coral'
p3986
aS'overpass'
p3987
aS'nursing'
p3988
aS'figure'
p3989
aS'tinted'
p3990
aS'dropped'
p3991
aS'sailboat'
p3992
aS'1'
aS'speaks'
p3993
aS'huge'
p3994
aS'crashed'
p3995
aS'birthday'
p3996
aS'floral'
p3997
aS'renovation'
p3998
aS'classroom'
p3999
aS'branches'
p4000
aS'liquid'
p4001
aS'hilltop'
p4002
aS'furnished'
p4003
aS'pineapples'
p4004
aS'White'
p4005
aS'blocked'
p4006
aS'platform'
p4007
aS'offers'
p4008
aS'farmer'
p4009
aS'lonely'
p4010
aS'underneath'
p4011
aS'wagon'
p4012
aS'name'
p4013
aS'trunks'
p4014
aS'populated'
p4015
aS'catching'
p4016
aS'zebra'
p4017
aS'sunrise'
p4018
aS'tulips'
p4019
aS'factory'
p4020
aS'she'
p4021
aS'eagle'
p4022
aS'hula'
p4023
aS'sandwhich'
p4024
aS'uniformed'
p4025
aS'Sign'
p4026
aS'motion'
p4027
aS'turn'
p4028
aS'place'
p4029
aS'swing'
p4030
aS'saucers'
p4031
aS'soaring'
p4032
aS'array'
p4033
aS'given'
p4034
aS'district'
p4035
aS'plastic'
p4036
aS'cooling'
p4037
aS'white'
p4038
aS'gives'
p4039
aS'hug'
p4040
aS'terrain'
p4041
aS'cops'
p4042
aS'holder'
p4043
aS'wide'
p4044
aS'cards'
p4045
aS'driveway'
p4046
aS'sells'
p4047
aS'any'
p4048
aS'batting'
p4049
aS'silhouette'
p4050
aS'dining'
p4051
aS'surf'
p4052
aS'sure'
p4053
aS'multiple'
p4054
aS'falls'
p4055
aS'seafood'
p4056
aS'senior'
p4057
aS'slope'
p4058
aS'perch'
p4059
aS'solar'
p4060
aS'recipe'
p4061
aS'infant'
p4062
aS'spaces'
p4063
aS'state'
p4064
aS'wood'
p4065
aS'wool'
p4066
aS'lighted'
p4067
aS'lighter'
p4068
aS'dye'
p4069
aS'hedge'
p4070
aS'fryer'
p4071
aS'reveal'
p4072
aS'aluminum'
p4073
aS'bison'
p4074
aS'through'
p4075
aS'pants'
p4076
aS'reveals'
p4077
aS'picnic'
p4078
aS'college'
p4079
aS'parking'
p4080
aS'bicyclist'
p4081
aS'spoons'
p4082
aS'outside'
p4083
aS'guitar'
p4084
aS'dip'
p4085
aS'diners'
p4086
aS'pens'
p4087
aS'comb'
p4088
aS'come'
p4089
aS'quiet'
p4090
aS'berry'
p4091
aS'railway'
p4092
aS'merry'
p4093
aS'color'
p4094
aS'pot'
p4095
aS'hunched'
p4096
aS'pop'
p4097
aS'pole'
p4098
aS'polo'
p4099
aS'Numerous'
p4100
aS'turkey'
p4101
aS'Bus'
p4102
aS'peaceful'
p4103
aS'helicopter'
p4104
aS'featuring'
p4105
aS'abstract'
p4106
aS'peaking'
p4107
aS'direction'
p4108
aS'tiger'
p4109
aS'standup'
p4110
aS'pilot'
p4111
aS'case'
p4112
aS'mount'
p4113
aS'cash'
p4114
aS'cast'
p4115
aS'shops'
p4116
aS'Open'
p4117
aS'slippers'
p4118
aS'vest'
p4119
aS'candies'
p4120
aS'telephone'
p4121
aS'someone'
p4122
aS'clutter'
p4123
aS'helmet'
p4124
aS'projector'
p4125
aS'bowl'
p4126
aS'trip'
p4127
aS'bows'
p4128
aS'macaroni'
p4129
aS'Silver'
p4130
aS'barefoot'
p4131
aS'nest'
p4132
aS'driver'
p4133
aS'drives'
p4134
aS'driven'
p4135
aS'persons'
p4136
aS'statue'
p4137
aS'IN'
p4138
aS'changing'
p4139
aS'Is'
p4140
aS'It'
p4141
aS'without'
p4142
aS'In'
p4143
aS'model'
p4144
aS'Pink'
p4145
aS'United'
p4146
aS'captures'
p4147
aS'guided'
p4148
aS'satin'
p4149
aS'kneeling'
p4150
aS'captured'
p4151
aS'halfway'
p4152
aS'blow'
p4153
aS'rose'
p4154
aS'seems'
p4155
aS'except'
p4156
aS'lets'
p4157
aS'hind'
p4158
aS'styles'
p4159
aS'Many'
p4160
aS'fridge'
p4161
aS'styled'
p4162
aS'confined'
p4163
aS'Tall'
p4164
aS'crouching'
p4165
aS'furniture'
p4166
aS'towel'
p4167
aS'towed'
p4168
aS'oddly'
p4169
aS'Something'
p4170
aS'tower'
p4171
aS'Army'
p4172
aS'West'
p4173
aS'competition'
p4174
aS'swimsuit'
p4175
aS'slice'
p4176
aS'shirtless'
p4177
aS'moon'
p4178
aS'hipster'
p4179
aS'provides'
p4180
aS'beached'
p4181
aS'nails'
p4182
aS'inspect'
p4183
aS'nightstands'
p4184
aS'on'
p4185
aS'Giraffes'
p4186
aS'jeep'
p4187
aS'of'
p4188
aS'shrimp'
p4189
aS'stand'
p4190
aS'ox'
p4191
aS'or'
p4192
aS'ladies'
p4193
aS'instruments'
p4194
aS'garb'
p4195
aS'buds'
p4196
aS'there'
p4197
aS'valley'
p4198
aS'jug'
p4199
aS'kittens'
p4200
aS'amongst'
p4201
aS'cabinet'
p4202
aS'grass'
p4203
aS'toilet'
p4204
aS'tasty'
p4205
aS'rubber'
p4206
aS'roses'
p4207
aS'5'
aS'trash'
p4208
aS'pillows'
p4209
aS'separate'
p4210
aS'symbol'
p4211
aS'midair'
p4212
aS'includes'
p4213
aS'brass'
p4214
aS'missed'
p4215
aS'curve'
p4216
aS'curvy'
p4217
aS'oriental'
p4218
aS'peeks'
p4219
aS'platter'
p4220
aS'lace'
p4221
aS'chinese'
p4222
aS'disc'
p4223
aS'dish'
p4224
aS'follow'
p4225
aS'disk'
p4226
aS'apartment'
p4227
aS'crashing'
p4228
aS'program'
p4229
aS'dairy'
p4230
aS'present'
p4231
aS'presentation'
p4232
aS'tethered'
p4233
aS'activities'
p4234
aS'far'
p4235
aS'fat'
p4236
aS'fan'
p4237
aS'towers'
p4238
aS'grandfather'
p4239
aS'trench'
p4240
aS'Motorcycle'
p4241
aS'ten'
p4242
aS'tea'
p4243
aS'tee'
p4244
aS'design'
p4245
aS'cheeses'
p4246
aS'sub'
p4247
aS'sun'
p4248
aS'crust'
p4249
aS'readies'
p4250
aS'racing'
p4251
aS'guns'
p4252
aS'multitude'
p4253
aS'tags'
p4254
aS'directions'
p4255
aS'observing'
p4256
aS'siamese'
p4257
aS'cucumbers'
p4258
aS'miniature'
p4259
aS'sticking'
p4260
aS'Toy'
p4261
aS'Tow'
p4262
aS'screens'
p4263
aS'appliances'
p4264
aS'donuts'
p4265
aS'rustic'
p4266
aS'Baseball'
p4267
aS'horses'
p4268
aS'flat'
p4269
aS'grabbing'
p4270
aS'pairs'
p4271
aS'flag'
p4272
aS'stick'
p4273
aS'rooster'
p4274
aS'parasail'
p4275
aS'policemen'
p4276
aS'v'
aS'Different'
p4277
aS'pony'
p4278
aS'urinals'
p4279
aS'pond'
p4280
aS'pong'
p4281
aS'swung'
p4282
aS'court'
p4283
aS'rather'
p4284
aS'breaking'
p4285
aS'speeding'
p4286
aS'goat'
p4287
aS'sandwich'
p4288
aS'lighting'
p4289
aS'softball'
p4290
aS'short'
p4291
aS'shady'
p4292
aS'shore'
p4293
aS'shade'
p4294
aS'maneuver'
p4295
aS'handlebars'
p4296
aS'style'
p4297
aS'sale'
p4298
aS'mattress'
p4299
aS'resort'
p4300
aS'strange'
p4301
aS'soccer'
p4302
aS'might'
p4303
aS'return'
p4304
aS'L'
aS'hairdryer'
p4305
aS'bigger'
p4306
aS'instructions'
p4307
aS'policeman'
p4308
aS'snowboarders'
p4309
aS'tilted'
p4310
aS'weight'
p4311
aS'posts'
p4312
aS'fixture'
p4313
aS'him'
p4314
aS'scratching'
p4315
aS'cups'
p4316
aS'alcohol'
p4317
aS'linens'
p4318
aS'dugout'
p4319
aS'Eight'
p4320
aS'hill'
p4321
aS'cookie'
p4322
aS'guy'
p4323
aS'thrown'
p4324
aS'thread'
p4325
aS'People'
p4326
aS'twenty'
p4327
aS'snowboarding'
p4328
aS'fallen'
p4329
aS'throws'
p4330
aS'bushel'
p4331
aS'feed'
p4332
aS'urinal'
p4333
aS'fancy'
p4334
aS'feet'
p4335
aS'Indian'
p4336
aS'passes'
p4337
aS'story'
p4338
aS'"'
aS'gourmet'
p4339
aS'automobile'
p4340
aS'leash'
p4341
aS'rails'
p4342
aS'lobby'
p4343
aS'passed'
p4344
aS'syrup'
p4345
aS'store'
p4346
aS'hotel'
p4347
aS'rifle'
p4348
aS'Road'
p4349
aS'reflection'
p4350
aS'king'
p4351
aS'kind'
p4352
aS'travels'
p4353
aS'stall'
p4354
aS'stalk'
p4355
aS'outdoors'
p4356
aS'dispenser'
p4357
aS'cleaner'
p4358
aS'uniforms'
p4359
aS'skyscrapers'
p4360
aS'cleaned'
p4361
aS'Assorted'
p4362
aS'bales'
p4363
aS'sandwiches'
p4364
aS'added'
p4365
aS'electric'
p4366
aS'cargo'
p4367
aS'reach'
p4368
aS'cigarette'
p4369
aS'nothing'
p4370
aS'stands'
p4371
aS'patterned'
p4372
aS'trolly'
p4373
aS'windows'
p4374
aS'traditional'
p4375
aS'lying'
p4376
aS'stones'
p4377
aS'loveseat'
p4378
aS'asphalt'
p4379
aS'font'
p4380
aS'heavily'
p4381
aS'grazes'
p4382
aS'his'
p4383
aS'hit'
p4384
aS'Both'
p4385
aS'banquet'
p4386
aS'Passenger'
p4387
aS'Olympic'
p4388
aS'activity'
p4389
aS'bars'
p4390
aS'art'
p4391
aS'dump'
p4392
aS'bare'
p4393
aS'are'
p4394
aS'bark'
p4395
aS'arm'
p4396
aS'barn'
p4397
aS'recording'
p4398
aS'various'
p4399
aS'numerous'
p4400
aS'rared'
p4401
aS'recently'
p4402
aS'sold'
p4403
aS'attention'
p4404
aS'outfit'
p4405
aS'African'
p4406
aS'bronze'
p4407
aS'AND'
p4408
aS'license'
p4409
aS'roman'
p4410
aS'interactive'
p4411
aS'flies'
p4412
aS'sweet'
p4413
aS'village'
p4414
aS'goats'
p4415
aS'overlook'
p4416
aS'political'
p4417
aS'whom'
p4418
aS'brick'
p4419
aS'attractive'
p4420
aS'siting'
p4421
aS'referee'
p4422
aS'flight'
p4423
aS'rocking'
p4424
aS'instructor'
p4425
aS'plants'
p4426
aS'frozen'
p4427
aS'batch'
p4428
aS'barricade'
p4429
aS'City'
p4430
aS'leans'
p4431
aS'rim'
p4432
aS'nightstand'
p4433
aS'rig'
p4434
aS'Dozens'
p4435
aS'shirt'
p4436
aS'peoples'
p4437
aS'9'
aS'Cow'
p4438
aS'mountain'
p4439
aS'cement'
p4440
aS'patriotic'
p4441
aS'flown'
p4442
aS'moving'
p4443
aS'lower'
p4444
aS'noodle'
p4445
aS'try'
p4446
aS'cheek'
p4447
aS'chickens'
p4448
aS'edge'
p4449
aS'machinery'
p4450
aS'stating'
p4451
aS'hotdog'
p4452
aS'knot'
p4453
aS'camel'
p4454
aS'pigeons'
p4455
aS'competitive'
p4456
aS'press'
p4457
aS'tables'
p4458
aS'loading'
p4459
aS'tablet'
p4460
aS'workers'
p4461
aS'Nokia'
p4462
aS'Chocolate'
p4463
aS'Front'
p4464
aS'customers'
p4465
aS'vendor'
p4466
aS'Air'
p4467
aS'shaped'
p4468
aS'shapes'
p4469
aS'streaming'
p4470
aS'litter'
p4471
aS'sauces'
p4472
aS'saucer'
p4473
aS'controllers'
p4474
aS'Fire'
p4475
aS'retro'
p4476
aS'bookshelves'
p4477
aS'intense'
p4478
aS'Square'
p4479
aS'plaza'
p4480
aS'surfers'
p4481
aS'range'
p4482
aS'Bedroom'
p4483
aS'plethora'
p4484
aS'canal'
p4485
aS'rows'
p4486
aS'lone'
p4487
aS'fast'
p4488
aS'mattresses'
p4489
aS'sections'
p4490
aS'files'
p4491
aS'mountains'
p4492
aS'Animals'
p4493
aS'raisins'
p4494
aS'cloth'
p4495
aS'filed'
p4496
aS'upright'
p4497
aS'crane'
p4498
aS'raising'
p4499
aS'penguin'
p4500
aS'fries'
p4501
aS'fried'
p4502
aS'called'
p4503
aS'soars'
p4504
aS'sepia'
p4505
aS'warning'
p4506
aS'rally'
p4507
aS'rainbow'
p4508
aS'rainy'
p4509
aS'lemon'
p4510
aS'peach'
p4511
aS'rains'
p4512
aS'peace'
p4513
aS'backs'
p4514
aS'parlor'
p4515
aS'nice'
p4516
aS'mustard'
p4517
aS'allowing'
p4518
aS'posters'
p4519
aS'pottery'
p4520
aS'buffalo'
p4521
aS'hooks'
p4522
aS'windy'
p4523
aS'gang'
p4524
aS'cupboards'
p4525
aS'peering'
p4526
aS'languages'
p4527
aS'stable'
p4528
aS'include'
p4529
aS'fences'
p4530
aS'spool'
p4531
aS'spoon'
p4532
aS'drinking'
p4533
aS'notes'
p4534
aS'smaller'
p4535
aS'Vegetables'
p4536
aS'State'
p4537
aS'traveling'
p4538
aS'hummingbird'
p4539
aS'waiting'
p4540
aS'attire'
p4541
aS'Line'
p4542
aS'cozy'
p4543
aS'Light'
p4544
aS'pushing'
p4545
aS'wraps'
p4546
aS'sexy'
p4547
aS'cyclist'
p4548
aS'adjusts'
p4549
aS'shades'
p4550
aS'leaving'
p4551
aS'submerged'
p4552
aS'spices'
p4553
aS'apple'
p4554
aS'aboard'
p4555
aS'motor'
p4556
aS'duck'
p4557
aS'use'
p4558
aS'from'
p4559
aS'stream'
p4560
aS'&'
aS'rackets'
p4561
aS'few'
p4562
aS'depicted'
p4563
aS'porch'
p4564
aS'parrots'
p4565
aS'rabbit'
p4566
aS'Trains'
p4567
aS'Guy'
p4568
aS'women'
p4569
aS'getting'
p4570
aS'chin'
p4571
aS'Plates'
p4572
aS'biscuit'
p4573
aS'boulder'
p4574
aS'dripping'
p4575
aS'tag'
p4576
aS'something'
p4577
aS'tan'
p4578
aS'onions'
p4579
aS'Frisbee'
p4580
aS'sit'
p4581
aS'six'
p4582
aS'sidewalks'
p4583
aS'instead'
p4584
aS'toddler'
p4585
aS'cupboard'
p4586
aS'masks'
p4587
aS'taco'
p4588
aS'faucets'
p4589
aS'Outdoor'
p4590
aS'sculptures'
p4591
aS'light'
p4592
aS'crawling'
p4593
aS'necklace'
p4594
aS'discussion'
p4595
aS'rusted'
p4596
aS'Oriental'
p4597
aS'looks'
p4598
aS'Bird'
p4599
aS'raw'
p4600
aS'ships'
p4601
aS'raquet'
p4602
aS'Fruit'
p4603
aS'turban'
p4604
aS'orange'
p4605
aS'covered'
p4606
aS'holiday'
p4607
aS'crowds'
p4608
aS'crash'
p4609
aS'citrus'
p4610
aS'flour'
p4611
aS'practice'
p4612
aS'barbeque'
p4613
aS'oranges'
p4614
aS'Cat'
p4615
aS'flea'
p4616
aS'easel'
p4617
aS'tram'
p4618
aS'trimmed'
p4619
aS'weather'
p4620
aS'tray'
p4621
aS'related'
p4622
aS'sectional'
p4623
aS'out'
p4624
aS'parasailing'
p4625
aS'herded'
p4626
aS'performs'
p4627
aS'Older'
p4628
aS'pours'
p4629
aS'utensil'
p4630
aS'tanker'
p4631
aS'conversation'
p4632
aS'tipped'
p4633
aS'restaurants'
p4634
aS'bouquet'
p4635
aS'vases'
p4636
aS'Cake'
p4637
aS'umbrellas'
p4638
aS'potty'
p4639
aS'shell'
p4640
aS'shelf'
p4641
aS'shallow'
p4642
aS'slides'
p4643
aS'reflecting'
p4644
aS'noses'
p4645
aS'sculpture'
p4646
aS'clip'
p4647
aS'teenagers'
p4648
aS'angle'
p4649
aS'bagel'
p4650
aS'which'
p4651
aS'vegetation'
p4652
aS'lagoon'
p4653
aS'knees'
p4654
aS'who'
p4655
aS'class'
p4656
aS'pipe'
p4657
aS'balding'
p4658
aS'burners'
p4659
aS'seaweed'
p4660
aS'chicken'
p4661
aS'mugs'
p4662
aS'sprouts'
p4663
aS'surroundings'
p4664
aS'sunflowers'
p4665
aS'piano'
p4666
aS'local'
p4667
aS'watching'
p4668
aS'ones'
p4669
aS'cubs'
p4670
aS'words'
p4671
aS'THE'
p4672
aS'chips'
p4673
aS'married'
p4674
aS'deli'
p4675
aS'view'
p4676
aS'signed'
p4677
aS'closer'
p4678
aS'closet'
p4679
aS'closed'
p4680
aS'opening'
p4681
aS'beverages'
p4682
aS'RV'
p4683
aS'job'
p4684
aS'ottoman'
p4685
aS'goal'
p4686
aS'grain'
p4687
aS'slaw'
p4688
aS'wall'
p4689
aS'walk'
p4690
aS'packaging'
p4691
aS'table'
p4692
aS'trays'
p4693
aS'motorbike'
p4694
aS'painted'
p4695
aS'swans'
p4696
aS'Force'
p4697
aS'abandoned'
p4698
aS'utensils'
p4699
aS'vanilla'
p4700
aS'Halloween'
p4701
aS'will'
p4702
aS'hovering'
p4703
aS'wild'
p4704
aS'cutter'
p4705
aS'layer'
p4706
aS'gothic'
p4707
aS'Bunches'
p4708
aS'dual'
p4709
aS'vintage'
p4710
aS'cross'
p4711
aS'member'
p4712
aS'England'
p4713
aS'gets'
p4714
aS'tomatoes'
p4715
aS'difficult'
p4716
aS'cellphones'
p4717
aS'Luggage'
p4718
aS'student'
p4719
aS'whale'
p4720
aS'collar'
p4721
aS'warming'
p4722
aS'Adults'
p4723
aS'contest'
p4724
aS'fighting'
p4725
aS'States'
p4726
aS'scissor'
p4727
aS'tails'
p4728
aS'bandanna'
p4729
aS'bending'
p4730
aS'looked'
p4731
aS'fishing'
p4732
aS'toilets'
p4733
aS'console'
p4734
aS'dinning'
p4735
aS'other'
p4736
aS'Starbucks'
p4737
aS'jars'
p4738
aS'ski'
p4739
aS'identical'
p4740
aS'know'
p4741
aS'facial'
p4742
aS'catchers'
p4743
aS'doughnut'
p4744
aS'Elephants'
p4745
aS'because'
p4746
aS'sequence'
p4747
aS'Sun'
p4748
aS'searching'
p4749
aS'graduation'
p4750
aS'leaf'
p4751
aS'lead'
p4752
aS'lean'
p4753
aS'markers'
p4754
aS'leap'
p4755
aS'dangling'
p4756
aS'mitt'
p4757
aS'pasta'
p4758
aS'paste'
p4759
aS'carried'
p4760
aS'saddle'
p4761
aS'column'
p4762
aS'spilled'
p4763
aS'carries'
p4764
aS'carrier'
p4765
aS'sweat'
p4766
aS'owl'
p4767
aS'own'
p4768
aS'wilderness'
p4769
aS'travelers'
p4770
aS'brush'
p4771
aS'van'
p4772
aS'Clock'
p4773
aS'spiral'
p4774
aS'powdered'
p4775
aS'upwards'
p4776
aS'goose'
p4777
aS'made'
p4778
aS'hitter'
p4779
aS'WII'
p4780
aS'record'
p4781
aS'below'
p4782
aS'cake'
p4783
aS'stirring'
p4784
aS'Pots'
p4785
aS'maroon'
p4786
aS'boardwalk'
p4787
aS'trailing'
p4788
aS'incredible'
p4789
aS'boot'
p4790
aS'monitors'
p4791
aS'book'
p4792
aS'Five'
p4793
aS'branch'
p4794
aS'junk'
p4795
aS'kinds'
p4796
aS'shredded'
p4797
aS'pumps'
p4798
aS'cliff'
p4799
aS'goblets'
p4800
aS'vane'
p4801
aS'OTHERPAD'
p4802
aa(dp4803
g3
I0
sg4160
I4190
sg3612
I3637
sg3591
I3616
sg1393
I1400
sg3451
I3475
sg4
I1
sg3592
I3617
sg5
I2
sg3933
I3962
sg6
I3
sg3593
I3618
sg2375
I2392
sg18
I15
sg2376
I2393
sg4579
I4615
sg1213
I1220
sg207
I206
sg8
I5
sg3595
I3620
sg28
I25
sg30
I27
sg3596
I3621
sg3597
I3622
sg9
I6
sg40
I37
sg1216
I1223
sg10
I7
sg2379
I2396
sg1217
I1224
sg3599
I3624
sg2381
I2398
sg3600
I3625
sg11
I8
sg1220
I1227
sg2382
I2399
sg4610
I4646
sg1221
I1228
sg3601
I3626
sg2170
I2185
sg3252
I3276
sg2383
I2400
sg3639
I3664
sg1223
I1230
sg2317
I2333
sg1224
I1231
sg3843
I3871
sg3604
I3629
sg86
I84
sg2385
I2402
sg13
I10
sg2386
I2403
sg2679
I2700
sg401
I401
sg4503
I4538
sg94
I92
sg15
I12
sg4223
I4254
sg3607
I3632
sg4272
I4303
sg2388
I2405
sg2783
I2804
sg2389
I2406
sg1225
I1232
sg3608
I3633
sg16
I13
sg3557
I3582
sg2391
I2408
sg2392
I2409
sg17
I14
sg1226
I1233
sg2393
I2410
sg7
I4
sg19
I16
sg2394
I2411
sg3611
I3636
sg1227
I1234
sg20
I17
sg21
I18
sg22
I19
sg3613
I3638
sg3573
I3598
sg1229
I1236
sg3673
I3698
sg2395
I2412
sg740
I743
sg1231
I1238
sg3614
I3639
sg23
I20
sg1986
I1999
sg4571
I4607
sg153
I151
sg26
I23
sg2397
I2414
sg3594
I3619
sg2398
I2415
sg1232
I1239
sg2658
I2679
sg27
I24
sg760
I763
sg1234
I1241
sg1235
I1242
sg2401
I2418
sg1236
I1243
sg602
I605
sg2402
I2419
sg29
I26
sg1238
I1245
sg31
I28
sg32
I29
sg2558
I2578
sg33
I30
sg1989
I2002
sg188
I186
sg3621
I3646
sg3622
I3647
sg2404
I2421
sg3623
I3648
sg1239
I1246
sg2405
I2422
sg34
I31
sg1240
I1247
sg4659
I4695
sg3624
I3649
sg2406
I2423
sg1241
I1248
sg35
I32
sg1243
I1250
sg2199
I2214
sg3399
I3423
sg2408
I2425
sg4542
I4577
sg36
I33
sg1244
I1251
sg2601
I2621
sg3288
I3312
sg37
I34
sg1993
I2006
sg3850
I3878
sg39
I36
sg3627
I3652
sg1215
I1222
sg3628
I3653
sg2329
I2345
sg1247
I1254
sg2410
I2427
sg3629
I3654
sg2378
I2395
sg41
I38
sg3630
I3655
sg2411
I2428
sg2795
I2816
sg2412
I2429
sg2413
I2430
sg2414
I2431
sg4190
I4220
sg42
I39
sg1249
I1256
sg3633
I3658
sg1903
I1916
sg3634
I3659
sg2417
I2434
sg1250
I1257
sg2418
I2435
sg1251
I1258
sg2419
I2436
sg4424
I4458
sg268
I268
sg2421
I2438
sg44
I41
sg457
I458
sg4547
I4582
sg1252
I1259
sg2422
I2439
sg282
I282
sg2424
I2441
sg4196
I4226
sg1253
I1260
sg2496
I2515
sg45
I42
sg46
I43
sg3575
I3600
sg2797
I2818
sg1254
I1261
sg3821
I3849
sg47
I44
sg2425
I2442
sg2426
I2443
sg48
I45
sS'V'
I2444
sg3822
I3850
sg49
I46
sg50
I47
sg3663
I3688
sg1255
I1262
sg3638
I3663
sg1809
I1820
sg51
I48
sg2428
I2446
sg4232
I4263
sg2429
I2447
sg1258
I1265
sg1259
I1266
sg2431
I2449
sg2432
I2450
sg1260
I1267
sg2433
I2451
sg1261
I1268
sg1262
I1269
sg53
I50
sg3310
I3334
sg2434
I2452
sg2200
I2215
sg2585
I2605
sg3641
I3666
sg1806
I1817
sg54
I51
sg1264
I1271
sg2435
I2453
sg56
I53
sg57
I54
sg2857
I2878
sg1265
I1272
sg2437
I2455
sg59
I56
sg1267
I1274
sg60
I57
sg3643
I3668
sg2202
I2217
sg3645
I3670
sg3646
I3671
sg61
I58
sg2438
I2456
sg4362
I4396
sg4028
I4058
sg1269
I1276
sg62
I59
sg63
I60
sg1270
I1277
sg64
I61
sg65
I62
sg66
I63
sg67
I64
sg3651
I3676
sg1271
I1278
sg3652
I3677
sg1272
I1279
sg1273
I1280
sg3653
I3678
sg1274
I1281
sS'A'
I65
sg383
I383
sg3654
I3679
sg386
I386
sg68
I66
sg3656
I3681
sg1275
I1282
sg1276
I1283
sg3311
I3335
sg1277
I1284
sg69
I67
sg398
I398
sg1709
I1718
sg1278
I1285
sg2440
I2458
sg3659
I3684
sg1279
I1286
sg1280
I1287
sg3660
I3685
sg70
I68
sg4436
I4470
sg71
I69
sg2441
I2459
sg72
I70
sg73
I71
sg2443
I2461
sg3521
I3546
sg265
I265
sg74
I72
sg3555
I3580
sg1664
I1672
sg3662
I3687
sg423
I424
sg1281
I1288
sg3665
I3690
sg1282
I1289
sg2445
I2463
sg1283
I1290
sg77
I75
sg78
I76
sg2444
I2462
sg1284
I1291
sg3753
I3780
sg1285
I1292
sg79
I77
sg2582
I2602
sg1286
I1293
sg3667
I3692
sg4742
I4778
sg3668
I3693
sg3218
I3242
sg3669
I3694
sg2446
I2464
sg2447
I2465
sg1287
I1294
sg80
I78
sg2448
I2466
sg3825
I3853
sg81
I79
sg2024
I2038
sg82
I80
sg83
I81
sg1289
I1296
sg84
I82
sg85
I83
sg1290
I1297
sS','
I2469
sg3672
I3697
sg2451
I2470
sg2452
I2471
sg3826
I3854
sg87
I85
sg1291
I1298
sg4102
I4132
sg2594
I2614
sg1292
I1299
sg1293
I1300
sg3676
I3701
sg3677
I3702
sg2454
I2473
sg2680
I2701
sg1398
I1405
sg88
I86
sg1295
I1302
sg1296
I1303
sg4533
I4568
sg2804
I2825
sg1298
I1305
sg2596
I2616
sg2455
I2474
sg4552
I4587
sg89
I87
sg531
I534
sg90
I88
sg1299
I1306
sg92
I90
sg3678
I3703
sg4613
I4649
sg4645
I4681
sg3827
I3855
sg2456
I2475
sg2666
I2687
sg3680
I3705
sg3705
I3731
sg2457
I2476
sg4340
I4374
sg1301
I1308
sg1302
I1309
sg14
I11
sg3092
I3115
sg2458
I2477
sg95
I93
sg3683
I3708
sg1304
I1311
sg2867
I2888
sg96
I94
sg2461
I2480
sg2462
I2481
sg2463
I2482
sg1305
I1312
sg3686
I3711
sg1306
I1313
sg1307
I1314
sg2000
I2013
sg4137
I4167
sg97
I95
sg3354
I3378
sg98
I96
sg99
I97
sg2770
I2791
sg3690
I3715
sg3220
I3244
sg3691
I3716
sg2464
I2483
sg1309
I1316
sg100
I98
sg1311
I1318
sg101
I99
sg102
I100
sg4240
I4271
sg2466
I2485
sg3693
I3718
sg3694
I3719
sg2591
I2611
sg1312
I1319
sg1313
I1320
sg2771
I2792
sg104
I102
sg105
I103
sg3697
I3722
sg1886
I1898
sg1314
I1321
sg1677
I1686
sg2427
I2445
sg1315
I1322
sg4241
I4272
sg2468
I2487
sg1316
I1323
sg1409
I1416
sg4034
I4064
sg3701
I3726
sg1317
I1324
sg3082
I3105
sg106
I104
sg3702
I3727
sg3703
I3728
sg107
I105
sg2471
I2490
sg1631
I1639
sg3649
I3674
sg2602
I2622
sg109
I107
sg3704
I3730
sg1474
I1482
sg110
I108
sg657
I660
sg111
I109
sg2572
I2592
sg2473
I2492
sg3224
I3248
sg3706
I3732
sg112
I110
sg2206
I2221
sg4442
I4477
sg2475
I2494
sg3707
I3733
sg113
I111
sg2390
I2407
sg2476
I2495
sg1632
I1640
sg114
I112
sg3225
I3249
sg1323
I1330
sg3530
I3555
sg3084
I3107
sg2477
I2496
sg3709
I3735
sg3411
I3435
sg2478
I2497
sg2605
I2625
sg4646
I4682
sg115
I113
sg4324
I4357
sg116
I114
sg709
I712
sg118
I116
sg2481
I2500
sg4589
I4625
sg1324
I1331
sg2482
I2501
sg3609
I3634
sg1325
I1332
sg4036
I4066
sg1326
I1333
sg2484
I2503
sg119
I117
sg4735
I4771
sg120
I118
sg2485
I2504
sg121
I119
sg122
I120
sg3715
I3741
sg2758
I2779
sg2487
I2506
sg3716
I3742
sg4628
I4664
sg123
I121
sg124
I122
sg3718
I3744
sg2029
I2043
sg125
I123
sg1329
I1336
sg4595
I4631
sg1330
I1337
sg3141
I3164
sg3720
I3746
sg1816
I1827
sg1635
I1643
sg127
I125
sg2488
I2507
sg128
I126
sg412
I413
sg3151
I3174
sg3724
I3750
sg3564
I3589
sg3725
I3751
sg1333
I1340
sg3726
I3752
sg2492
I2511
sg2619
I2640
sg130
I128
sg1228
I1235
sg3412
I3436
sg3727
I3753
sg3553
I3578
sg2495
I2514
sg131
I129
sg132
I130
sg1334
I1341
sg3728
I3754
sg133
I131
sg2497
I2516
sg2815
I2836
sg1335
I1342
sg4245
I4276
sg3729
I3755
sg3028
I3050
sg2498
I2517
sg12
I9
sg3731
I3757
sg4747
I4783
sg2499
I2518
sg134
I132
sg135
I133
sg4448
I4483
sg2500
I2519
sg136
I134
sg3733
I3759
sg3734
I3760
sg2501
I2520
sg137
I135
sg1338
I1345
sg2502
I2521
sg2503
I2522
sg3833
I3861
sg3736
I3762
sg2504
I2523
sg1339
I1346
sg138
I136
sg139
I137
sg1341
I1348
sg140
I138
sg851
I854
sg141
I139
sS'-'
I3763
sg3737
I3764
sg1342
I1349
sg2506
I2525
sg1417
I1424
sg2507
I2526
sg143
I141
sg3738
I3765
sg1344
I1351
sg3739
I3766
sg3740
I3767
sg3250
I3274
sg2396
I2413
sg1345
I1352
sg4642
I4678
sg1346
I1353
sg3741
I3768
sg3304
I3328
sg146
I144
sg2508
I2527
sg3742
I3769
sg1348
I1355
sg2509
I2528
sg147
I145
sg148
I146
sg2010
I2023
sg3107
I3130
sg3744
I3771
sg1349
I1356
sg3745
I3772
sg2554
I2574
sg2510
I2529
sg2511
I2530
sg3747
I3774
sg4042
I4072
sg150
I148
sg1998
I2011
sg151
I149
sg2513
I2532
sg2514
I2533
sg4337
I4370
sg3294
I3318
sg2515
I2534
sg2516
I2535
sg3752
I3779
sg2517
I2536
sg923
I928
sg152
I150
sg25
I22
sg4249
I4280
sg2095
I2109
sg2519
I2538
sg1351
I1358
sg3756
I3783
sg2520
I2539
sg3757
I3784
sg154
I152
sg1352
I1359
sg1353
I1360
sg155
I153
sg156
I154
sg2611
I2632
sg157
I155
sg158
I156
sg4350
I4384
sg2521
I2540
sg1643
I1651
sg2523
I2542
sg3838
I3866
sg970
I975
sg3760
I3787
sg160
I158
sg1354
I1361
sg2524
I2543
sg161
I159
sg2525
I2544
sg3762
I3789
sg3763
I3790
sg2526
I2545
sg4044
I4074
sg3655
I3680
sg3617
I3642
sg2527
I2546
sg1644
I1652
sg2387
I2404
sg2528
I2547
sg1356
I1363
sg2529
I2548
sg2530
I2549
sg163
I161
sg2399
I2416
sg3730
I3756
sg1358
I1365
sg164
I162
sg3583
I3608
sg1359
I1366
sg2532
I2551
sg165
I163
sg1360
I1367
sg166
I164
sg167
I165
sg168
I166
sg170
I168
sg3770
I3797
sg171
I169
sg2536
I2555
sg2537
I2556
sg2538
I2557
sg2539
I2558
sg172
I170
sg2540
I2559
sg1923
I1936
sg1362
I1369
sg1363
I1370
sg4511
I4546
sg2541
I2560
sg1971
I1984
sg1364
I1371
sg3695
I3720
sg4147
I4177
sg173
I171
sg1365
I1372
sg4684
I4720
sg1641
I1649
sg2014
I2027
sg1366
I1373
sg2884
I2905
sg1066
I1072
sg4495
I4530
sg1367
I1374
sg3427
I3451
sg2026
I2040
sg174
I172
sg175
I173
sg2747
I2768
sg2544
I2563
sg3708
I3734
sg176
I174
sg1368
I1375
sg2545
I2564
sg1086
I1092
sg2546
I2565
sg2547
I2566
sg1370
I1377
sg3778
I3805
sg1371
I1378
sg3721
I3747
sg3780
I3807
sg2549
I2568
sg177
I175
sg1372
I1379
sg2550
I2569
sg3781
I3808
sg178
I176
sg1645
I1653
sg3235
I3259
sg1373
I1380
sg2403
I2420
sg2110
I2125
sg2551
I2571
sg180
I178
sg181
I179
sg4449
I4484
sg2824
I2845
sg1374
I1381
sg3749
I3776
sg182
I180
sg2552
I2572
sg3784
I3811
sg4459
I4494
sg3444
I3468
sg3786
I3813
sg2553
I2573
sg1375
I1382
sg3364
I3388
sg183
I181
sg1376
I1383
sg3789
I3816
sg1377
I1384
sg184
I182
sg1378
I1385
sg1379
I1386
sg2555
I2575
sg185
I183
sg2349
I2366
sg3790
I3817
sg2557
I2577
sg3791
I3818
sg3347
I3371
sg1380
I1387
sg3794
I3821
sg3223
I3247
sg3516
I3541
sg186
I184
sg3620
I3645
sg4739
I4775
sg4323
I4356
sg1382
I1389
sg1383
I1390
sg1384
I1391
sg1163
I1169
sg2559
I2579
sg4415
I4449
sg3796
I3823
sg4170
I4200
sg2560
I2580
sg189
I187
sg3797
I3824
sg190
I188
sg3546
I3571
sg1385
I1392
sg3798
I3825
sg858
I861
sg192
I190
sg4592
I4628
sg4647
I4683
sg1386
I1393
sg193
I191
sg194
I192
sg3801
I3828
sg1188
I1194
sg2563
I2583
sS'.'
I193
sg3804
I3831
sg3805
I3832
sg195
I194
sg196
I195
sg2565
I2585
sg197
I196
sg198
I197
sg3807
I3834
sg3808
I3835
sg199
I198
sg200
I199
sg201
I200
sg1390
I1397
sg3809
I3836
sg1392
I1399
sg202
I201
sg2570
I2590
sg203
I202
sg204
I203
sg1943
I1956
sg4464
I4499
sg549
I552
sg206
I205
sg3812
I3839
sg1408
I1415
sg1214
I1221
sg3422
I3446
sg3813
I3840
sg3598
I3623
sg2250
I2265
sS' '
I1814
sg2829
I2850
sg3815
I3842
sg3842
I3870
sg1395
I1402
sg2573
I2593
sg2574
I2594
sg2575
I2595
sg1233
I1240
sg3242
I3266
sg3625
I3650
sg4388
I4422
sg3817
I3845
sg3818
I3846
sg2577
I2597
sg1242
I1249
sg1397
I1404
sg2579
I2599
sg2580
I2600
sg2581
I2601
sg208
I207
sg3636
I3661
sg1399
I1406
sg2583
I2603
sg2584
I2604
sg2407
I2424
sg209
I208
sg1400
I1407
sg1401
I1408
sg2586
I2606
sg1268
I1275
sg3626
I3651
sg2587
I2607
sg4047
I4077
sg4332
I4365
sg2588
I2608
sg2589
I2609
sg211
I210
sg3824
I3852
sg2590
I2610
sg2018
I2032
sg1826
I1837
sg1403
I1410
sg213
I212
sg2592
I2612
sg214
I213
sg1405
I1412
sg3040
I3062
sg1406
I1413
sg3670
I3695
sg3846
I3874
sg4785
I4821
sg2593
I2613
sg215
I214
sg216
I215
sg2595
I2615
sg1407
I1414
sg2597
I2617
sg4320
I4353
sg217
I216
sg2599
I2619
sg3684
I3709
sg2600
I2620
sg218
I217
sg3692
I3717
sg3615
I3640
sg219
I218
sg1410
I1417
sg1411
I1418
sg220
I219
sg2603
I2623
sg1320
I1327
sg1322
I1329
sg3830
I3858
sg1246
I1253
sg4649
I4685
sg1327
I1334
sg4467
I4502
sg2606
I2626
sg2607
I2627
sg1412
I1419
sg1414
I1421
sg4711
I4747
sg3215
I3239
sg1416
I1423
sg2608
I2629
sg1343
I1350
sg3834
I3862
sg4121
I4151
sg221
I220
sg1418
I1425
sg1419
I1426
sg222
I221
sg2610
I2631
sg3837
I3865
sg4260
I4291
sg2420
I2437
sg2623
I2644
sg223
I222
sg3759
I3786
sg1421
I1428
sg2612
I2633
sg3848
I3876
sg2613
I2634
sg1423
I1430
sg671
I674
sg2614
I2635
sg2616
I2637
sg2617
I2638
sg3919
I3948
sg4051
I4081
sg1424
I1431
sg1425
I1432
sg1426
I1433
sg3430
I3454
sg1427
I1434
sg224
I223
sg2021
I2035
sg225
I224
sg3806
I3833
sg3283
I3307
sg1428
I1435
sg1391
I1398
sg226
I225
sg227
I226
sg1429
I1436
sg2620
I2641
sg4792
I4828
sg3844
I3872
sg3845
I3873
sg1430
I1437
sg1431
I1438
sg2621
I2642
sg2622
I2643
sg228
I227
sg3258
I3282
sg1432
I1439
sg229
I228
sg3832
I3860
sg3847
I3875
sg1433
I1440
sg3343
I3367
sg2624
I2645
sg230
I229
sg231
I230
sg3849
I3877
sg2469
I2488
sg2626
I2647
sg2627
I2648
sg3851
I3879
sg3852
I3880
sg3853
I3881
sg3631
I3656
sg1434
I1441
sg3856
I3884
sg2628
I2649
sg4798
I4834
sg233
I232
sg234
I233
sg3854
I3882
sg1437
I1444
sg1438
I1445
sg3855
I3883
sg1439
I1446
sg530
I533
sg3632
I3657
sg1440
I1447
sg3836
I3864
sg235
I234
sg236
I235
sg237
I236
sg238
I237
sg239
I238
sg240
I239
sg429
I430
sg1468
I1476
sg2630
I2651
sg3891
I3920
sg242
I241
sg4053
I4083
sg3858
I3886
sg4572
I4608
sg243
I242
sg3859
I3887
sg4469
I4504
sg2632
I2653
sg3768
I3795
sg245
I244
sg246
I245
sg1441
I1448
sg2838
I2859
sS'/'
I1449
sg3862
I3890
sg1442
I1450
sg3864
I3892
sg247
I246
sg1248
I1255
sg3766
I3793
sg2635
I2656
sg1443
I1451
sg3865
I3893
sg3866
I3894
sg3867
I3895
sg249
I248
sg250
I249
sg1444
I1452
sg2636
I2657
sg3869
I3897
sg1445
I1453
sg251
I250
sg3181
I3205
sg3870
I3898
sg252
I251
sg1447
I1455
sg4108
I4138
sg1448
I1456
sg2637
I2658
sg3871
I3899
sg2015
I2029
sg1449
I1457
sg4555
I4590
sg4112
I4142
sg253
I252
sg3816
I3844
sg1328
I1335
sS'v'
I4308
sS'o'
I254
sg2638
I2659
sg725
I728
sg1452
I1460
sg3432
I3456
sg255
I255
sg3606
I3631
sg256
I256
sg257
I257
sg1454
I1462
sg258
I258
sg3515
I3540
sg2640
I2661
sg1456
I1464
sg3357
I3381
sg2642
I2663
sg259
I259
sg1598
I1606
sg1599
I1607
sg4631
I4667
sg260
I260
sg261
I261
sg262
I262
sg3857
I3885
sg3880
I3908
sg3881
I3909
sg4353
I4387
sg2644
I2665
sg263
I263
sg2645
I2666
sg264
I264
sg266
I266
sg1620
I1628
sg3882
I3910
sg267
I267
sg3619
I3644
sg3883
I3911
sg4751
I4787
sg3884
I3912
sg1462
I1470
sg1463
I1471
sg4657
I4693
sg43
I40
sg269
I269
sg1464
I1472
sg1465
I1473
sg4242
I4273
sg270
I270
sg2647
I2668
sg2648
I2669
sg3886
I3914
sg3887
I3915
sg2649
I2670
sg1466
I1474
sg4577
I4613
sg4629
I4665
sg2650
I2671
sg3888
I3917
sg1467
I1475
sg3889
I3918
sg2629
I2650
sg4060
I4090
sg1469
I1477
sg3890
I3919
sg2493
I2512
sg271
I271
sg2653
I2674
sg4058
I4088
sg4470
I4505
sg272
I272
sg4475
I4510
sg2654
I2675
sg3892
I3921
sg273
I273
sg2423
I2440
sg1472
I1480
sg274
I274
sg2655
I2676
sg2656
I2677
sg1473
I1481
sg2542
I2561
sg275
I275
sg3895
I3924
sg3896
I3925
sg276
I276
sg277
I277
sg2845
I2866
sg2659
I2680
sg278
I278
sg279
I279
sg2661
I2682
sg1475
I1483
sg280
I280
sg2662
I2683
sg2663
I2684
sg3899
I3928
sg2664
I2685
sg3254
I3278
sg4004
I4034
sg281
I281
sg1025
I1030
sg1655
I1663
sg3901
I3930
sg4227
I4258
sg1477
I1485
sg283
I283
sg3903
I3932
sg284
I284
sg285
I285
sg2522
I2541
sg3905
I3934
sg826
I829
sg1479
I1487
sg3328
I3352
sg286
I286
sg3907
I3936
sg3908
I3937
sg1480
I1488
sg2670
I2691
sg2671
I2692
sg3910
I3939
sg3911
I3940
sg2672
I2693
sg287
I287
sg3912
I3941
sg288
I288
sg289
I289
sg3914
I3943
sg1482
I1490
sg3916
I3945
sg2674
I2695
sg3917
I3946
sg2846
I2867
sg1750
I1760
sg290
I290
sg291
I291
sg2676
I2697
sg3689
I3714
sg4714
I4750
sg3920
I3949
sg3921
I3950
sg3922
I3951
sg292
I292
sg3052
I3074
sg1483
I1491
sg902
I907
sg2633
I2654
sg3440
I3464
sg1485
I1493
sg293
I293
sg294
I294
sg3924
I3953
sg1486
I1494
sg3925
I3954
sg295
I295
sg1487
I1495
sg3841
I3869
sg296
I296
sg2682
I2703
sg1488
I1496
sg2683
I2704
sg3927
I3956
sg2788
I2809
sg3929
I3958
sg1489
I1497
sg1490
I1498
sg3930
I3959
sg297
I297
sg1491
I1499
sg1492
I1500
sg298
I298
sg299
I299
sg300
I300
sg3931
I3960
sg301
I301
sg3932
I3961
sg302
I302
sg2688
I2709
sg1494
I1502
sg1495
I1503
sg2678
I2699
sg1496
I1504
sg2689
I2710
sg1831
I1842
sg303
I303
sS'W'
I3729
sg304
I304
sg1497
I1505
sg3936
I3965
sg3260
I3284
sg1840
I1851
sg2141
I2156
sg1498
I1506
sg306
I306
sg1499
I1507
sg307
I307
sg4778
I4814
sg4061
I4091
sg1500
I1508
sg2850
I2871
sg1501
I1509
sg308
I308
sg1502
I1510
sg3939
I3968
sg1257
I1264
sg3077
I3100
sg1435
I1442
sg2694
I2715
sg309
I309
sg3941
I3970
sg3942
I3971
sg310
I310
sg1504
I1512
sg4655
I4691
sg4312
I4345
sg1505
I1513
sg1506
I1514
sg4191
I4221
sg311
I311
sg2698
I2719
sg1507
I1515
sg312
I312
sg313
I313
sg314
I314
sg1509
I1517
sg1510
I1518
sg2699
I2720
sg4660
I4696
sg315
I315
sg1879
I1891
sg52
I49
sg3945
I3974
sg316
I316
sg3262
I3286
sg317
I317
sg318
I318
sg319
I319
sg3122
I3145
sg320
I320
sg321
I321
sg2853
I2874
sg1512
I1520
sg2702
I2723
sg3948
I3977
sg4363
I4397
sg3949
I3978
sg3950
I3979
sg2703
I2724
sg4367
I4401
sg2704
I2725
sg1513
I1521
sg3953
I3982
sg4752
I4788
sg3954
I3983
sg1514
I1522
sg1515
I1523
sg1516
I1524
sg2705
I2726
sg2706
I2727
sg2744
I2765
sg3618
I3643
sg322
I322
sg2854
I2875
sg2707
I2728
sg4477
I4512
sg2709
I2730
sg3957
I3986
sg2710
I2731
sg3679
I3704
sg323
I323
sg1517
I1525
sg2712
I2733
sg2038
I2052
sg3958
I3987
sg448
I449
sg3959
I3988
sg3960
I3989
sg1518
I1526
sg325
I325
sg4662
I4698
sg326
I326
sg2811
I2832
sg1263
I1270
sg1520
I1528
sg2246
I2261
sg2715
I2736
sg327
I327
sg4500
I4535
sg1845
I1856
sg1521
I1529
sg2856
I2877
sg1522
I1530
sg3020
I3042
sg328
I328
sg3640
I3665
sg3239
I3263
sg1523
I1531
sg4075
I4105
sg4569
I4605
sg3185
I3209
sg4342
I4376
sg4441
I4476
sg3964
I3993
sg3947
I3976
sg1524
I1532
sg4601
I4637
sg2718
I2739
sg330
I330
sg1446
I1454
sg1525
I1533
sg1526
I1534
sg3965
I3994
sg3278
I3302
sg3061
I3083
sg1527
I1535
sg331
I331
sg2720
I2741
sg1528
I1536
sg1529
I1537
sg332
I332
sg1530
I1538
sg4278
I4310
sg4718
I4754
sg2248
I2263
sg3265
I3289
sg1532
I1540
sg1533
I1541
sg1534
I1542
sg4192
I4222
sg3966
I3995
sg334
I334
sg335
I335
sg336
I336
sg337
I337
sg1739
I1749
sg1535
I1543
sg1536
I1544
sg3970
I3999
sg4665
I4701
sg339
I339
sg2054
I2068
sg4598
I4634
sg340
I340
sg1537
I1545
sg3872
I3900
sg1538
I1546
sg2723
I2744
sg2724
I2745
sg3972
I4001
sg1539
I1547
sg1540
I1548
sg2436
I2454
sg3266
I3290
sg2725
I2746
sg1541
I1549
sg2726
I2747
sg4479
I4514
sg3976
I4005
sg4235
I4266
sg3823
I3851
sg2727
I2748
sg3978
I4007
sg341
I341
sg342
I342
sg2730
I2751
sg2731
I2752
sg1543
I1551
sg1544
I1552
sg1545
I1553
sg3981
I4010
sg1546
I1554
sg1547
I1555
sg3982
I4011
sg1548
I1556
sg1549
I1557
sg1847
I1858
sg1550
I1558
sg356
I356
sg1552
I1560
sg343
I343
sg1553
I1561
sg3984
I4013
sg1665
I1673
sg2736
I2757
sg1451
I1459
sg4279
I4311
sg1554
I1562
sg2738
I2759
sg1555
I1563
sg3989
I4018
sg345
I345
sg1557
I1565
sg4634
I4670
sg346
I346
sg1558
I1566
sg3990
I4019
sg1559
I1567
sg3874
I3902
sg347
I347
sg348
I348
sg1560
I1568
sg1561
I1569
sg4281
I4313
sg1563
I1571
sg686
I689
sg2741
I2762
sg349
I349
sg3992
I4021
sg350
I350
sg1564
I1572
sg351
I351
sg3875
I3903
sg1565
I1573
sg1566
I1574
sg4603
I4639
sg2745
I2766
sg352
I352
sg2181
I2196
sg3993
I4023
sg354
I354
sg2748
I2769
sg3940
I3969
sg3973
I4002
sg2201
I2216
sg1567
I1575
sg3831
I3859
sg355
I355
sg2750
I2771
sg1568
I1576
sg3994
I4024
sg2751
I2772
sg2576
I2596
sg1902
I1915
sg4558
I4593
sg357
I357
sg3995
I4025
sg2753
I2774
sg1569
I1577
sg4633
I4669
sg2754
I2775
sg4636
I4672
sg3997
I4027
sg358
I358
sg2755
I2776
sg2207
I2222
sg2208
I2223
sg1570
I1578
sg1571
I1579
sg3999
I4029
sg2864
I2885
sg359
I359
sg360
I360
sg409
I409
sg4001
I4031
sg3452
I3476
sg4261
I4292
sg1453
I1461
sg362
I362
sg4059
I4089
sg363
I363
sg3876
I3904
sg2759
I2780
sg364
I364
sg365
I365
sg4653
I4689
sg2233
I2248
sg2762
I2783
sg366
I366
sg3648
I3673
sg2240
I2255
sg1573
I1581
sg1574
I1582
sg2764
I2785
sg1575
I1583
sg1576
I1584
sg2765
I2786
sg2047
I2061
sg2766
I2787
sg1577
I1585
sg1578
I1586
sg1579
I1587
sg367
I367
sg1158
I1164
sg1580
I1588
sg369
I369
sg3436
I3460
sg2121
I2136
sg2769
I2790
sg1581
I1589
sg1582
I1590
sg1583
I1591
sg370
I370
sg1584
I1592
sg1585
I1593
sg1586
I1594
sg371
I371
sg1587
I1595
sg2772
I2793
sg2773
I2794
sg372
I372
sg373
I373
sg3650
I3675
sg4007
I4037
sg1588
I1596
sg4008
I4038
sg1589
I1597
sg4009
I4039
sg2287
I2302
sg2775
I2796
sg1590
I1598
sg4083
I4113
sg375
I375
sg1591
I1599
sg4010
I4040
sg2776
I2797
sg2777
I2798
sg376
I376
sg2960
I2982
sg3873
I3901
sg4011
I4041
sg2778
I2799
sg2779
I2800
sg2780
I2801
sg2781
I2802
sg2782
I2803
sg1592
I1600
sg377
I377
sg2598
I2618
sg1594
I1602
sg1457
I1465
sg378
I378
sg379
I379
sg1597
I1605
sg4012
I4042
sg4013
I4043
sg2643
I2664
sg2439
I2457
sg1600
I1608
sg2784
I2805
sg4268
I4299
sg380
I380
sg2336
I2353
sg3879
I3907
sg1601
I1609
sg1458
I1466
sg381
I381
sg3216
I3240
sg382
I382
sg1602
I1610
sg2786
I2807
sg2787
I2808
sg2868
I2889
sg4129
I4159
sg1603
I1611
sg4777
I4813
sg1459
I1467
sg4016
I4046
sg4017
I4047
sg384
I384
sg1604
I1612
sg2789
I2810
sg385
I385
sg4791
I4827
sg1605
I1613
sg2634
I2655
sg2791
I2812
sg388
I388
sg389
I389
sg1607
I1615
sg3863
I3891
sg1608
I1616
sg390
I390
sg4019
I4049
sg4020
I4050
sg4234
I4265
sg3276
I3300
sg1609
I1617
sg4666
I4702
sg4307
I4340
sg391
I391
sg4257
I4288
sg1610
I1618
sg3207
I3231
sg3263
I3287
sg4023
I4053
sg2792
I2813
sg4064
I4094
sg2793
I2814
sg1612
I1620
sg3868
I3896
sg1613
I1621
sg392
I392
sg4062
I4092
sg4486
I4521
sg4526
I4561
sg393
I393
sg1615
I1623
sg2796
I2817
sg1616
I1624
sg4025
I4055
sg1617
I1625
sg1618
I1626
sg394
I394
sg2873
I2894
sg395
I395
sg1436
I1443
sg396
I396
sg397
I397
sg2799
I2820
sg399
I399
sg4027
I4057
sg2800
I2821
sg3024
I3046
sg3657
I3682
sg4029
I4059
sg400
I400
sg3460
I3484
sg4159
I4189
sg4289
I4321
sg4031
I4061
sg2801
I2822
sg2802
I2823
sg2147
I2162
sg2646
I2667
sg1621
I1629
sg1622
I1630
sg4487
I4522
sg1623
I1631
sg1624
I1632
sg1625
I1633
sg1626
I1634
sg403
I403
sg404
I404
sg4032
I4062
sg2805
I2826
sg2806
I2827
sg1627
I1635
sg2808
I2829
sg405
I405
sg1461
I1469
sg406
I406
sg2809
I2830
sg1629
I1637
sg1630
I1638
sg407
I407
sg2810
I2831
sg108
I106
sg4035
I4065
sg2380
I2397
sg408
I408
sg1633
I1641
sg3581
I3606
sg1634
I1642
sg410
I410
sg2814
I2835
sS'2'
I411
sg411
I412
sg129
I127
sg2490
I2509
sg4038
I4068
sg4037
I4067
sg413
I414
sg3461
I3485
sg1636
I1644
sg4039
I4069
sg4643
I4679
sg2816
I2837
sg4040
I4070
sg1637
I1645
sg1638
I1646
sg3237
I3261
sg414
I415
sg3072
I3095
sg1639
I1647
sg149
I147
sg1640
I1648
sg4291
I4323
sg2817
I2838
sg2442
I2460
sg1642
I1650
sg4043
I4073
sg1628
I1636
sg4091
I4121
sg2819
I2840
sg2820
I2841
sg415
I416
sg2821
I2842
sg2822
I2843
sg1883
I1895
sg3074
I3097
sg416
I417
sg2823
I2844
sg417
I418
sg1646
I1654
sg4045
I4075
sg3463
I3487
sg2825
I2846
sg3281
I3305
sg2556
I2576
sg4292
I4324
sg2826
I2847
sg4046
I4076
sg187
I185
sg4439
I4474
sg2827
I2848
sg1647
I1655
sg4688
I4724
sg4080
I4110
sg418
I419
sg4562
I4598
sg419
I420
sg420
I421
sg2828
I2849
sg2568
I2588
sg421
I422
sg2830
I2851
sg2641
I2662
sg1648
I1656
sg210
I209
sg212
I211
sg1649
I1657
sg4048
I4078
sg4049
I4079
sg422
I423
sg3926
I3955
sg2832
I2853
sg2833
I2854
sg4050
I4080
sg3080
I3103
sg4713
I4749
sg424
I425
sg2615
I2636
sg425
I426
sg1651
I1659
sg2673
I2694
sg426
I427
sg427
I428
sg2834
I2855
sg2835
I2856
sg3282
I3306
sg2837
I2858
sg1853
I1865
sg428
I429
sg4678
I4714
sg241
I240
sg430
I431
sg431
I432
sg244
I243
sg432
I433
sg2839
I2860
sg2840
I2861
sg1653
I1661
sg75
I73
sg433
I434
sg434
I435
sg4055
I4085
sg3264
I3288
sg254
I253
sg435
I436
sg2842
I2863
sg2400
I2417
sg2713
I2734
sg436
I437
sg4721
I4757
sg4026
I4056
sg3204
I3228
sg437
I438
sg4679
I4715
sg2844
I2865
sg4056
I4086
sg439
I440
sg440
I441
sg76
I74
sg3688
I3713
sg4301
I4333
sg1656
I1664
sg442
I443
sg4730
I4766
sg3468
I3492
sg2675
I2696
sg1657
I1665
sg4057
I4087
sg443
I444
sg1658
I1666
sg2651
I2672
sg2847
I2868
sg3528
I3553
sg444
I445
sg2848
I2869
sg3795
I3822
sg2849
I2870
sg445
I446
sg1858
I1870
sg446
I447
sg447
I448
sg2851
I2872
sg2852
I2873
sg2881
I2902
sg2701
I2722
sg2880
I2901
sg4498
I4533
sg1659
I1667
sg2855
I2876
sg324
I324
sg449
I450
sg1661
I1669
sg1662
I1670
sg2858
I2879
sg2859
I2880
sg2957
I2979
sg1663
I1671
sg450
I451
sg2860
I2881
sg451
I452
sg452
I453
sg3481
I3506
sg453
I454
sg4066
I4096
sg2862
I2883
sg3322
I3346
sg344
I344
sg1666
I1674
sg455
I456
sg4197
I4227
sg456
I457
sg458
I459
sg2865
I2886
sg1667
I1675
sg1668
I1676
sg459
I460
sg4068
I4098
sg2882
I2903
sg4069
I4099
sg460
I461
sg4280
I4312
sg374
I374
sg4072
I4102
sg2055
I2069
sg4073
I4103
sg461
I462
sg1670
I1678
sg1669
I1677
sg2869
I2890
sg2790
I2811
sg387
I387
sg462
I463
sg463
I464
sg4074
I4104
sg3090
I3113
sg2871
I2892
sg2872
I2893
sg464
I465
sg465
I466
sg402
I402
sg4077
I4107
sg4222
I4253
sg4078
I4108
sg1671
I1679
sg4313
I4346
sg3462
I3486
sg2818
I2839
sg1672
I1680
sg1673
I1681
sg905
I910
sg2876
I2897
sg1837
I1848
sg1674
I1682
sg467
I468
sg3261
I3285
sg4546
I4581
sg2877
I2898
sg2878
I2899
sg468
I469
sg441
I442
sg469
I470
sg2716
I2737
sg2879
I2900
sg470
I471
sg4082
I4112
sS'3'
I1683
sg454
I455
sg1675
I1684
sg4142
I4172
sg518
I521
sg471
I472
sg2883
I2904
sg472
I473
sg1676
I1685
sg3893
I3922
sg3946
I3975
sg4663
I4699
sg473
I474
sg474
I475
sg475
I476
sg4757
I4793
sg476
I477
sg3285
I3309
sg477
I478
sg478
I479
sg4084
I4114
sg4085
I4115
sg2449
I2467
sg479
I480
sg4086
I4116
sg480
I481
sg4087
I4117
sg2885
I2906
sg492
I494
sg4089
I4119
sg2899
I2920
sg481
I482
sg2886
I2907
sg4677
I4713
sg3193
I3217
sg482
I483
sg4090
I4120
sg4766
I4802
sg483
I484
sg2450
I2468
sS's'
I485
sg2889
I2910
sg484
I486
sg485
I487
sg486
I488
sg2409
I2426
sg1678
I1687
sg1679
I1688
sg2892
I2913
sg2893
I2914
sg3475
I3500
sg3897
I3926
sg91
I89
sg533
I536
sg4095
I4125
sg1681
I1690
sg3022
I3044
sg2894
I2915
sg488
I490
sg2895
I2916
sg1682
I1691
sg4099
I4129
sg1683
I1692
sg489
I491
sg4100
I4130
sg490
I492
sg491
I493
sg4101
I4131
sg3674
I3699
sg1684
I1693
sg4088
I4118
sg4329
I4362
sg493
I495
sg494
I496
sg495
I497
sg2660
I2681
sg496
I498
sg2978
I3000
sg4706
I4742
sg2898
I2919
sg1685
I1694
sg4103
I4133
sg1686
I1695
sg498
I500
sg574
I577
sg4106
I4136
sg2571
I2591
sg580
I583
sg3755
I3782
sg1687
I1696
sg500
I502
sg4771
I4807
sg1688
I1697
sg2901
I2922
sg501
I503
sg502
I504
sg606
I609
sg503
I505
sg1689
I1698
sg2291
I2306
sg1690
I1699
sg2905
I2926
sg1691
I1700
sg1692
I1701
sg4275
I4306
sg2906
I2927
sg4111
I4141
sg620
I623
sg2908
I2929
sg3188
I3212
sg1693
I1702
sg4303
I4335
sg3771
I3798
sg3291
I3315
sg631
I634
sg4115
I4145
sg504
I506
sg2910
I2931
sg505
I507
sg2911
I2932
sg641
I644
sg3036
I3058
sg3477
I3502
sg4118
I4148
sg3292
I3316
sg4119
I4149
sg1357
I1364
sg507
I509
sg4120
I4150
sg2275
I2290
sg1696
I1705
sg508
I510
sg509
I511
sg2913
I2934
sg2914
I2935
sg510
I512
sg2915
I2936
sg2916
I2937
sg4123
I4153
sg2665
I2686
sg1698
I1707
sg4304
I4336
sg1700
I1709
sg2887
I2908
sg670
I673
sg511
I513
sg4063
I4093
sg2917
I2938
sg2918
I2939
sg1738
I1748
sg2919
I2940
sg2920
I2941
sg4126
I4156
sg2888
I2909
sg2921
I2942
sg4127
I4157
sg1702
I1711
sg1703
I1712
sg2923
I2944
sg2959
I2981
sg1704
I1713
sg4687
I4723
sg4130
I4160
sg2924
I2945
sg2890
I2911
sg714
I717
sg514
I516
sg515
I517
sg4131
I4161
sg4508
I4543
sS'I'
I518
sg2928
I2949
sg1706
I1715
sg1707
I1716
sg2929
I2950
sg1708
I1717
sg2930
I2951
sg4135
I4165
sg4136
I4166
sg2931
I2952
sg516
I519
sg517
I520
sg3048
I3070
sg1202
I1208
sg4138
I4168
sg2933
I2954
sg736
I739
sg4539
I4574
sg1294
I1301
sg4504
I4539
sg2934
I2955
sg1711
I1720
sg2377
I2394
sg3140
I3163
sg1712
I1721
sg2794
I2815
sg743
I746
sg3094
I3117
sg4741
I4777
sg4293
I4325
sg1713
I1722
sg522
I525
sg2936
I2957
sg523
I526
sg4587
I4623
sg2093
I2107
sg4144
I4174
sg3635
I3660
sg1714
I1723
sg525
I528
sg2938
I2959
sg527
I530
sg1715
I1724
sg528
I531
sg1478
I1486
sg4148
I4178
sg1716
I1725
sg529
I532
sg1873
I1885
sg2669
I2690
sg2940
I2961
sg1718
I1727
sS'n'
I3843
sg1719
I1728
sg794
I797
sg4151
I4181
sg3735
I3761
sg4153
I4183
sg2941
I2962
sg1720
I1729
sg4154
I4184
sg4155
I4185
sg3296
I3320
sg1721
I1730
sg1722
I1731
sg809
I812
sg532
I535
sg4157
I4187
sg2943
I2964
sS'4'
I2965
sg1680
I1689
sg3743
I3770
sg2453
I2472
sg1300
I1307
sg534
I537
sg535
I538
sg833
I836
sg1723
I1732
sg536
I539
sg1724
I1733
sg1725
I1734
sg3909
I3938
sg2365
I2382
sg4161
I4191
sg1726
I1735
sg537
I540
sg1728
I1737
sg538
I541
sg4097
I4127
sg1729
I1738
sg4162
I4192
sg4163
I4193
sg853
I856
sg2946
I2968
sg2947
I2969
sg1731
I1740
sg4071
I4101
sg1732
I1741
sg2949
I2971
sg2950
I2972
sg3469
I3493
sg869
I872
sg4621
I4657
sg4703
I4739
sg4246
I4277
sg540
I543
sg3096
I3119
sg4168
I4198
sg876
I880
sg2952
I2974
sg2953
I2975
sg2954
I2976
sg2955
I2977
sg2956
I2978
sg613
I616
sg541
I544
sg542
I545
sg1735
I1745
sg4516
I4551
sg543
I546
sg3793
I3820
sg544
I547
sg3065
I3087
sg1736
I1746
sg545
I548
sg1737
I1747
sg4173
I4203
sg3777
I3804
sg4443
I4478
sg4174
I4204
sg3820
I3848
sg4022
I4052
sg546
I549
sg2961
I2983
sg547
I550
sg548
I551
sg2962
I2984
sg3681
I3706
sg4176
I4206
sS'&'
I4596
sg3035
I3057
sg550
I553
sg2657
I2678
sg3682
I3707
sg931
I936
sg551
I554
sg1481
I1489
sg552
I555
sg4180
I4210
sg1740
I1750
sg2067
I2081
sg2964
I2986
sg2965
I2987
sg945
I950
sg3915
I3944
sg1741
I1751
sg2459
I2478
sg1742
I1752
sg2966
I2988
sg1743
I1753
sg4181
I4211
sg1744
I1754
sg3039
I3061
sg4760
I4796
sg2697
I2718
sg2967
I2989
sg1746
I1756
sg2968
I2990
sg553
I556
sg1747
I1757
sg974
I979
sg554
I557
sg3761
I3788
sg4195
I4225
sg555
I558
sg4067
I4097
sg1748
I1758
sg3811
I3838
sg556
I559
sg3184
I3208
sg1749
I1759
sg2749
I2770
sg2972
I2994
sg2973
I2995
sg557
I560
sg3372
I3396
sg2566
I2586
sg1751
I1761
sg2974
I2996
sg4518
I4553
sg1752
I1762
sg4193
I4223
sg2975
I2997
sg558
I561
sg559
I562
sg4194
I4224
sg560
I563
sg2977
I2999
sg3685
I3710
sg561
I564
sg2194
I2209
sg2979
I3001
sg3918
I3947
sg3391
I3415
sg2980
I3002
sg562
I565
sg2981
I3003
sg1753
I1763
sg563
I566
sg564
I567
sg4488
I4523
sg1755
I1765
sg565
I568
sg1757
I1767
sg1758
I1768
sg566
I569
sg567
I570
sg1760
I1770
sg1058
I1064
sg1762
I1772
sg1062
I1068
sg3103
I3126
sg3494
I3519
sg568
I571
sg4198
I4228
sg569
I572
sg2609
I2630
sg2281
I2296
sg1075
I1081
sg2983
I3005
sg571
I574
sg2984
I3006
sg1765
I1775
sg2985
I3007
sg4202
I4232
sg1766
I1776
sg1308
I1315
sg1767
I1777
sg2987
I3009
sg1768
I1778
sg572
I575
sg1770
I1780
sg573
I576
sg4105
I4135
sg2988
I3010
sg575
I578
sg2989
I3011
sg1772
I1782
sg4177
I4207
sg2677
I2698
sg1103
I1109
sg3327
I3351
sg1230
I1237
sg2990
I3012
sg2991
I3013
sg576
I579
sg4375
I4409
sg2073
I2087
sg577
I580
sg4203
I4233
sg1122
I1128
sg499
I501
sg1774
I1784
sg581
I584
sg3491
I3516
sg582
I585
sg583
I586
sg3359
I3383
sg1775
I1785
sg584
I587
sg585
I588
sg586
I589
sg587
I590
sg4205
I4235
sg588
I591
sg1764
I1774
sg589
I592
sg590
I593
sg591
I594
sg1139
I1145
sg2998
I3020
sg1310
I1317
sg2999
I3021
sg592
I595
sg4384
I4418
sg1484
I1492
sg1777
I1787
sg3497
I3522
sg3001
I3023
sg3002
I3024
sg1779
I1789
sg2465
I2484
sg1159
I1165
sg593
I596
sS'5'
I4238
sg594
I597
sg1780
I1790
sg1781
I1791
sg595
I598
sg596
I599
sg2076
I2090
sg598
I601
sg1782
I1792
sg4209
I4240
sg4054
I4084
sg3006
I3028
sg4211
I4242
sg2681
I2702
sg1784
I1794
sg1785
I1795
sg599
I602
sg600
I603
sg601
I604
sg1786
I1796
sg1787
I1797
sg3773
I3800
sg3007
I3029
sg1788
I1798
sg1789
I1799
sg4317
I4350
sg1790
I1800
sg2903
I2924
sg1792
I1802
sg3471
I3495
sg3570
I3595
sg603
I606
sg604
I607
sg605
I608
sg3499
I3524
sg1205
I1211
sg169
I167
sg4217
I4248
sg607
I610
sg608
I611
sg1209
I1215
sg2904
I2925
sg4220
I4251
sg3009
I3031
sg1795
I1805
sg4515
I4550
sg609
I612
sg1212
I1219
sg1797
I1807
sg1798
I1808
sg1799
I1809
sg3696
I3721
sg3010
I3032
sg610
I613
sg3011
I3033
sg4110
I4140
sg611
I614
sg1800
I1810
sg3814
I3841
sg2289
I2304
sg1801
I1811
sg4225
I4256
sg3013
I3035
sg4226
I4257
sg1802
I1812
sg3014
I3036
sg1803
I1813
sg1237
I1244
sg1804
I1815
sg4079
I4109
sg612
I615
sg1245
I1252
sg4186
I4216
sg3113
I3136
sg3819
I3847
sg614
I617
sg615
I618
sg4229
I4260
sg616
I619
sg3015
I3037
sg617
I620
sg618
I621
sg3016
I3038
sg2140
I2155
sg4233
I4264
sg619
I622
sg2907
I2928
sg1266
I1273
sg3017
I3039
sg1807
I1818
sg3928
I3957
sg4788
I4824
sg1614
I1622
sg1808
I1819
sg2267
I2282
sg4236
I4267
sg3198
I3222
sg1810
I1821
sg3519
I3544
sg3018
I3040
sg3019
I3041
sg1288
I1295
sg3666
I3691
sg2467
I2486
sg4698
I4734
sg3021
I3043
sg621
I624
sg4238
I4269
sg622
I625
sg4239
I4270
sg623
I626
sg624
I627
sg3426
I3450
sg4373
I4407
sg625
I628
sg2578
I2598
sg1812
I1823
sg1813
I1824
sg1814
I1825
sg526
I529
sg3023
I3045
sg1815
I1826
sg4243
I4274
sg1493
I1501
sg1332
I1339
sg4244
I4275
sg4114
I4144
sg626
I629
sg3026
I3048
sg3027
I3049
sg627
I630
sg628
I631
sg629
I632
sg4732
I4768
sg1340
I1347
sg630
I633
sg3029
I3051
sg4204
I4234
sg1694
I1703
sg1347
I1354
sg4247
I4278
sg632
I635
sg4248
I4279
sg633
I636
sg3030
I3052
sg1350
I1357
sg634
I637
sg2687
I2708
sg2081
I2095
sg4018
I4048
sg635
I638
sg636
I639
sg4251
I4282
sg3031
I3053
sg4253
I4284
sg637
I640
sg3032
I3054
sg638
I641
sg639
I642
sg4254
I4285
sg1817
I1828
sg640
I643
sg3033
I3055
sg1818
I1829
sg3034
I3056
sg1819
I1830
sg4255
I4286
sg1820
I1831
sg4256
I4287
sg4116
I4146
sg1821
I1832
sg3510
I3535
sg1822
I1833
sg1823
I1834
sg3988
I4017
sg3355
I3379
sg1824
I1835
sg3037
I3059
sg4580
I4616
sg1825
I1836
sg4107
I4137
sg1402
I1409
sg1827
I1838
sg3041
I3063
sg1828
I1839
sg3415
I3439
sg642
I645
sg643
I646
sg644
I647
sg3042
I3064
sg3194
I3218
sg1420
I1427
sg645
I648
sg3840
I3868
sg2470
I2489
sg1830
I1841
sg3044
I3066
sg3045
I3067
sg4262
I4293
sg4263
I4294
sg3120
I3143
sg4094
I4124
sg646
I649
sg4264
I4295
sg1832
I1843
sg1833
I1844
sg648
I651
sg3476
I3501
sg3934
I3963
sg1835
I1846
sg3046
I3068
sg1836
I1847
sg649
I652
sg4478
I4513
sg4265
I4296
sg1695
I1704
sg3047
I3069
sg650
I653
sg651
I654
sg4266
I4297
sg3049
I3071
sg3885
I3913
sg652
I655
sS'6'
I3916
sg1838
I1849
sg3050
I3072
sg3464
I3488
sg1470
I1478
sg2912
I2933
sg653
I656
sg654
I657
sg4269
I4300
sg1697
I1706
sg655
I658
sg3750
I3777
sg2472
I2491
sg4270
I4301
sg3051
I3073
sg656
I659
sg2690
I2711
sg1318
I1325
sg1841
I1852
sg2685
I2706
sg4273
I4304
sg3053
I3075
sg2086
I2100
sg1842
I1853
sg4800
I4836
sg3054
I3076
sg1843
I1854
sg658
I661
sg4529
I4564
sg3055
I3077
sg1319
I1326
sg2922
I2943
sg3057
I3079
sg660
I663
sg3541
I3566
sg1844
I1855
sg3058
I3080
sg661
I664
sg662
I665
sg663
I666
sg664
I667
sg3060
I3082
sg3829
I3857
sg665
I668
sg1996
I2009
sg3123
I3146
sg3062
I3084
sg4709
I4745
sg1846
I1857
sg4188
I4218
sg666
I669
sg3063
I3085
sg667
I670
sg1848
I1859
sg3986
I4015
sg2692
I2713
sg3064
I3086
sg4199
I4229
sg1849
I1860
sg1910
I1923
sg1562
I1570
sg4282
I4314
sg668
I671
sg2296
I2311
sg1850
I1861
sg2384
I2401
sS'!'
I3088
sg669
I672
sg3066
I3089
sg3800
I3827
sg4283
I4315
sg4686
I4722
sg4284
I4316
sg4564
I4600
sg4285
I4317
sg672
I675
sg673
I676
sg4286
I4318
sg674
I677
sg3067
I3090
sg4287
I4319
sg675
I678
sg4398
I4432
sg676
I679
sg4288
I4320
sg2297
I2312
sg677
I680
sg3068
I3091
sg2891
I2912
sg1851
I1862
sg678
I681
sg3579
I3604
sg3069
I3092
sg4681
I4717
sg679
I682
sg680
I683
sg3318
I3342
sg3071
I3094
sg681
I684
sS'a'
I1863
sg1852
I1864
sg3231
I3255
sg3073
I3096
sg682
I685
sg3782
I3809
sg2518
I2537
sg3076
I3099
sg683
I686
sg684
I687
sg685
I688
sg3078
I3101
sg3079
I3102
sg1650
I1658
sg3642
I3667
sg687
I690
sg4294
I4326
sg688
I691
sg1855
I1867
sg4295
I4327
sg1856
I1868
sg1857
I1869
sg3081
I3104
sg690
I693
sg4538
I4573
sg691
I694
sg692
I695
sg693
I696
sg3083
I3106
sg1859
I1871
sg4296
I4328
sg694
I697
sg3938
I3967
sg1860
I1872
sg695
I698
sg1861
I1873
sg4553
I4588
sg696
I699
sg3085
I3108
sg3086
I3109
sg697
I700
sg698
I701
sg699
I702
sg4276
I4307
sg700
I703
sg3943
I3972
sg4297
I4329
sg701
I704
sg1476
I1484
sg1862
I1874
sg2176
I2191
sg4616
I4652
sg2221
I2236
sg4298
I4330
sg4737
I4773
sg3087
I3110
sg4299
I4331
sg3088
I3111
sg2951
I2973
sg2301
I2316
sg4218
I4249
sg1863
I1875
sg702
I705
sg4302
I4334
sg703
I706
sg3091
I3114
sg4179
I4209
sg1864
I1876
sg1699
I1708
sg1866
I1878
sg1867
I1879
sg704
I707
sg1870
I1882
sS'L'
I4337
sg1701
I1710
sg1871
I1883
sg4412
I4446
sg3514
I3539
sg1872
I1884
sg705
I708
sg1717
I1726
sg1874
I1886
sg4305
I4338
sg4306
I4339
sg707
I710
sg2733
I2754
sg3095
I3118
sg3835
I3863
sg117
I115
sg710
I713
sg3097
I3120
sg1503
I1511
sg2480
I2499
sg4175
I4205
sg942
I947
sg4122
I4152
sg3098
I3121
sg1876
I1888
sg4309
I4342
sg2696
I2717
sg711
I714
sg3100
I3123
sg4534
I4569
sg1877
I1889
sg712
I715
sg1878
I1890
sg3101
I3124
sg4310
I4343
sg713
I716
sg4311
I4344
sg2925
I2946
sg715
I718
sg3104
I3127
sg3105
I3128
sg1880
I1892
sg3106
I3129
sg1705
I1714
sg3944
I3973
sg3108
I3131
sg3712
I3738
sg4315
I4348
sg3878
I3906
sg1881
I1893
sg3109
I3132
sg1882
I1894
sg716
I719
sg717
I720
sg3110
I3133
sg4637
I4673
sg4215
I4246
sg4318
I4351
sg1885
I1897
sg3111
I3134
sg3112
I3135
sg4319
I4352
sg718
I721
sg1805
I1816
sg4321
I4354
sS'7'
I1899
sg3114
I3137
sg2863
I2884
sg4132
I4162
sg719
I722
sg4727
I4763
sg3115
I3138
sg1887
I1900
sg3116
I3139
sg1888
I1901
sg1889
I1902
sg4748
I4784
sg4133
I4163
sg720
I723
sg1508
I1516
sg4338
I4371
sg3117
I3140
sg721
I724
sg1891
I1904
sg3118
I3141
sg1892
I1905
sg4322
I4355
sg3119
I3142
sg4189
I4219
sg1893
I1906
sg722
I725
sg3121
I3144
sg1894
I1907
sg1839
I1850
sg1895
I1908
sg723
I726
sg3769
I3796
sg4325
I4358
sg1897
I1910
sg4781
I4817
sg1898
I1911
sg2486
I2505
sg724
I727
sg1899
I1912
sg1900
I1913
sg1710
I1719
sg726
I729
sg3124
I3147
sg727
I730
sg3125
I3148
sg728
I731
sg4330
I4363
sg4331
I4364
sg4093
I4123
sg729
I732
sg2932
I2953
sg2944
I2966
sg1511
I1519
sg1868
I1880
sg730
I733
sg4334
I4367
sg731
I734
sg4335
I4368
sg732
I735
sg3126
I3149
sg1904
I1917
sg4139
I4169
sg4104
I4134
sg733
I736
sg4316
I4349
sg4720
I4756
sg1906
I1919
sg3128
I3151
sg1907
I1920
sS'"'
I4372
sg734
I737
sg735
I738
sg3131
I3154
sg4339
I4373
sg1901
I1914
sg3129
I3152
sg1654
I1662
sg4343
I4377
sg1909
I1922
sg2700
I2721
sg4341
I4375
sg737
I740
sg4722
I4758
sg3751
I3778
sg1911
I1924
sg3132
I3155
sg3717
I3743
sg1913
I1926
sg4345
I4379
sg1914
I1927
sg4346
I4380
sg1915
I1928
sg4344
I4378
sg3134
I3157
sg519
I522
sg3136
I3159
sg3137
I3160
sg3758
I3785
sg3138
I3161
sg3139
I3162
sg1471
I1479
sg4348
I4382
sg2016
I2030
sg739
I742
sg4349
I4383
sg3518
I3543
sg4351
I4385
sg1916
I1929
sg3133
I3156
sg1957
I1970
sg3687
I3712
sg1917
I1930
sg3828
I3856
sg1918
I1931
sg3610
I3635
sg4354
I4388
sg4355
I4389
sg4356
I4390
sg4357
I4391
sg741
I744
sg1919
I1932
sg4140
I4170
sg2099
I2113
sg4358
I4392
sg521
I524
sg4360
I4394
sg1920
I1933
sg3719
I3745
sg744
I747
sg2618
I2639
sg745
I748
sg1921
I1934
sg3142
I3165
sg4141
I4171
sg4499
I4534
sg747
I750
sg748
I751
sg4724
I4760
sg749
I752
sg4361
I4395
sg4432
I4466
sg3143
I3166
sg3754
I3781
sg3144
I3167
sg3093
I3116
sg750
I753
sg1925
I1938
sg3145
I3168
sg3146
I3169
sg751
I754
sg948
I953
sg753
I756
sg1926
I1939
sg1927
I1940
sg1928
I1941
sg3147
I3170
sg1929
I1942
sg1331
I1338
sg2935
I2956
sg1930
I1943
sg4364
I4398
sg3951
I3980
sg2489
I2508
sg1256
I1263
sg755
I758
sg1932
I1945
sg4366
I4400
sg3723
I3749
sg3152
I3175
sg756
I759
sg3153
I3176
sg757
I760
sg758
I761
sg3154
I3177
sg4723
I4759
sg1933
I1946
sg759
I762
sg1934
I1947
sg4370
I4404
sg3156
I3179
sg1935
I1948
sg3157
I3180
sg3158
I3181
sg3952
I3981
sg4372
I4406
sg1936
I1949
sg4052
I4082
sg3565
I3590
sg1937
I1950
sg1938
I1951
sg762
I765
sg2060
I2074
sg3159
I3182
sg764
I767
sg1939
I1952
sg765
I768
sg766
I769
sg4729
I4765
sg1940
I1953
sg4377
I4411
sg4145
I4175
sg3963
I3992
sg767
I770
sg2491
I2510
sg768
I771
sg2937
I2958
sg3160
I3183
sg3161
I3184
sg3162
I3185
sg3163
I3186
sg1942
I1955
sg1450
I1458
sg746
I749
sg769
I772
sg3165
I3188
sg3523
I3548
sg4380
I4414
sg3166
I3189
sg3167
I3190
sg770
I773
sg3955
I3984
sg771
I774
sg2115
I2130
sg772
I775
sg1337
I1344
sg1945
I1958
sg4381
I4415
sg4540
I4575
sg1946
I1959
sg4382
I4416
sg1947
I1960
sg1948
I1961
sg2939
I2960
sS'8'
I3192
sg1949
I1962
sg773
I776
sg4574
I4610
sg774
I777
sg4383
I4417
sg2151
I2166
sg3956
I3985
sg2494
I2513
sg775
I778
sg4021
I4051
sg776
I779
sg4352
I4386
sg1950
I1963
sg4030
I4060
sg777
I780
sg2164
I2179
sg3169
I3193
sg778
I781
sg779
I782
sg1953
I1966
sg2171
I2186
sg780
I783
sg4314
I4347
sg3900
I3929
sg2668
I2689
sg1954
I1967
sg1955
I1968
sg3172
I3196
sg781
I784
sg3775
I3802
sg782
I785
sg783
I786
sg3173
I3197
sg3524
I3549
sg784
I787
sg3332
I3356
sg3174
I3198
sg4389
I4423
sg3175
I3199
sg785
I788
sg2803
I2824
sg786
I789
sg3176
I3200
sg3333
I3357
sg4390
I4424
sg787
I790
sg2205
I2220
sg4392
I4426
sg1958
I1971
sg3177
I3201
sg2003
I2016
sg788
I791
sg3179
I3203
sg4393
I4427
sg4394
I4428
sg789
I792
sg1959
I1972
sg4395
I4429
sg4396
I4430
sg790
I793
sg4397
I4431
sg791
I794
sg4612
I4648
sg3413
I3437
sg792
I795
sg793
I796
sg1961
I1974
sg4150
I4180
sg3182
I3206
sg795
I798
sg2249
I2264
sg4399
I4433
sg1962
I1975
sg4544
I4579
sg1963
I1976
sg796
I799
sg103
I101
sg4400
I4434
sg1964
I1977
sg797
I800
sg4401
I4435
sg2711
I2732
sg4402
I4436
sg798
I801
sg1965
I1978
sg4403
I4437
sg4404
I4438
sg4405
I4439
sg4430
I4464
sg1966
I1979
sg4468
I4503
sg4471
I4506
sg4406
I4440
sg3567
I3592
sg4407
I4441
sg3187
I3211
sg4408
I4442
sg1941
I1954
sg2625
I2646
sg93
I91
sg4409
I4443
sg3189
I3213
sg3190
I3214
sg800
I803
sg3191
I3215
sg1854
I1866
sg4410
I4444
sg3371
I3395
sg2114
I2129
sg4411
I4445
sg801
I804
sg1970
I1983
sg802
I805
sg803
I806
sg804
I807
sg1908
I1921
sg742
I745
sg2768
I2789
sg4413
I4447
sg3338
I3362
sg806
I809
sg4156
I4186
sg3196
I3220
sg1972
I1985
sg1973
I1986
sg2325
I2341
sg1974
I1987
sg807
I810
sg1975
I1988
sg4600
I4636
sg1210
I1217
sg1976
I1989
sg808
I811
sg4206
I4236
sg1977
I1990
sg810
I813
sg811
I814
sg1336
I1343
sg4417
I4451
sg4081
I4111
sg1519
I1527
sg812
I815
sg1978
I1991
sg813
I816
sg1979
I1992
sg3200
I3224
sg4419
I4453
sg2714
I2735
sg3201
I3225
sg4541
I4576
sg1980
I1993
sg1981
I1994
sg4661
I4697
sg814
I817
sg3202
I3226
sg3732
I3758
sg1982
I1995
sg815
I818
sg1983
I1996
sg816
I819
sg817
I820
sg3205
I3229
sg3525
I3550
sg1984
I1997
sg818
I821
sg819
I822
sg4801
I4837
sg3765
I3792
sg4065
I4095
sg2841
I2862
sg820
I823
sg4426
I4460
sg821
I824
sg822
I825
sg1985
I1998
sg3208
I3232
sg1922
I1935
sg4427
I4461
sg824
I827
sg825
I828
sg3209
I3233
sg4327
I4360
sg827
I830
sg24
I21
sg3210
I3234
sg1987
I2000
sg4429
I4463
sg828
I831
sg829
I832
sg3211
I3235
sg830
I833
sg1990
I2003
sg1991
I2004
sg1992
I2005
sg831
I834
sg832
I835
sg3480
I3505
sg834
I837
sg3213
I3237
sg4789
I4825
sg835
I838
sg2807
I2828
sg4431
I4465
sg836
I839
sg3214
I3238
sg1994
I2007
sg1995
I2008
sg4433
I4467
sg55
I52
sg837
I840
sg58
I55
sg4434
I4468
sg2717
I2738
sg3217
I3241
sg4277
I4309
sg838
I841
sg839
I842
sg4435
I4469
sg1997
I2010
sg840
I843
sg3102
I3125
sg1999
I2012
sS'9'
I4472
sg2460
I2479
sg3219
I3243
sg1924
I1937
sg4117
I4147
sg2001
I2014
sg4171
I4201
sg4438
I4473
sg2002
I2015
sg841
I844
sg962
I967
sg3222
I3246
sg4440
I4475
sg842
I845
sg843
I846
sg844
I847
sg845
I848
sg2004
I2017
sg2005
I2018
sg2483
I2502
sg3226
I3250
sg846
I849
sg847
I850
sg2505
I2524
sg126
I124
sg3227
I3251
sg4445
I4480
sg4096
I4126
sg4164
I4194
sg2006
I2019
sg4446
I4481
sg3229
I3253
sg2007
I2020
sg848
I851
sg849
I852
sg3532
I3557
sg3230
I3254
sg4450
I4485
sg2009
I2022
sg850
I853
sg2011
I2024
sg4451
I4486
sg3232
I3256
sg4452
I4487
sg2874
I2895
sg2012
I2025
sg4668
I4704
sg3233
I3257
sg2945
I2967
sg2120
I2135
sg4454
I4489
sg4455
I4490
sg4743
I4779
sg3996
I4026
sg2013
I2026
sg4457
I4492
sg3234
I3258
sg539
I542
sg854
I857
sg4167
I4197
sg142
I140
sg3206
I3230
sg2813
I2834
sg2719
I2740
sg179
I177
sg4458
I4493
sg855
I858
sg3236
I3260
sS'$'
I2028
sg4460
I4495
sg754
I757
sg2948
I2970
sg4461
I4496
sg4462
I4497
sg857
I860
sg4463
I4498
sg191
I189
sg3238
I3262
sg859
I862
sg860
I863
sg861
I864
sg862
I865
sg3240
I3264
sg4425
I4459
sg2695
I2716
sg4166
I4196
sg3241
I3265
sg863
I866
sg3243
I3267
sg864
I867
sg4465
I4500
sg4466
I4501
sg865
I868
sg866
I869
sg2798
I2819
sg3244
I3268
sg867
I870
sg2415
I2432
sg2222
I2237
sg3245
I3269
sg2020
I2034
sg2123
I2138
sg4207
I4237
sg368
I368
sg3246
I3270
sg144
I142
sg2071
I2085
sg870
I873
sg1869
I1881
sg2022
I2036
sS'd'
I874
sg232
I231
sg2023
I2037
sg4271
I4302
sg871
I875
sg856
I859
sg4745
I4781
sg4494
I4529
sg3248
I3272
sg2025
I2039
sg3877
I3905
sg872
I876
sg2028
I2042
sg873
I877
sg3249
I3273
sg3149
I3172
sg3342
I3366
sg3961
I3990
sg2030
I2044
sg2031
I2045
sg875
I879
sg2033
I2047
sg3251
I3275
sg3637
I3662
sg1734
I1743
sg3348
I3372
sg2034
I2048
sg4365
I4399
sg878
I882
sg2348
I2365
sg879
I883
sg3253
I3277
sg880
I884
sg4169
I4199
sg881
I885
sg4472
I4507
sg145
I143
sg3255
I3279
sg3256
I3280
sg4201
I4231
sg3257
I3281
sg3472
I3496
sg2035
I2049
sg2125
I2140
sg2686
I2707
sg4639
I4675
sg3803
I3830
sg3259
I3283
sg305
I305
sg4476
I4511
sg882
I886
sS't'
I1744
sg883
I887
sg2036
I2050
sg2037
I2051
sg4368
I4402
sg2708
I2729
sg884
I888
sg2039
I2053
sg2040
I2054
sg2041
I2055
sg885
I889
sg886
I890
sg2042
I2056
sg4559
I4594
sg2722
I2743
sg2043
I2057
sg338
I338
sg4125
I4155
sg2044
I2058
sg887
I891
sg3267
I3291
sg3547
I3572
sg3268
I3292
sg4369
I4403
sg4480
I4515
sg3269
I3293
sg4481
I4516
sg3270
I3294
sg4482
I4517
sg353
I353
sg4483
I4518
sg3334
I3358
sg2045
I2059
sg3271
I3295
sg2046
I2060
sg888
I892
sg3155
I3178
sg889
I893
sg4484
I4519
sg890
I894
sg2048
I2062
sg2049
I2063
sg891
I895
sg3272
I3296
sg3273
I3297
sg4561
I4597
sg3275
I3299
sg4474
I4509
sg3967
I3996
sg3408
I3432
sg2050
I2064
sg4485
I4520
sg3277
I3301
sg892
I896
sg4182
I4212
sg3425
I3449
sg2051
I2065
sg2052
I2066
sg3968
I3997
sg1460
I1468
sg893
I897
sg2812
I2833
sg3969
I3998
sg3279
I3303
sg894
I898
sg3280
I3304
sS':'
I899
sg4490
I4525
sg895
I900
sg2667
I2688
sg4491
I4526
sg4492
I4527
sg2053
I2067
sg4493
I4528
sg3351
I3375
sg896
I901
sg897
I902
sg3746
I3773
sg438
I439
sg898
I903
sg4496
I4531
sg4497
I4532
sg899
I904
sg900
I905
sg2861
I2882
sg901
I906
sg3284
I3308
sg3839
I3867
sg903
I908
sg3025
I3047
sg4501
I4536
sg904
I909
sg466
I467
sg4374
I4408
sg4617
I4653
sg3971
I4000
sg906
I911
sg907
I912
sg3286
I3310
sg2056
I2070
sg4502
I4537
sg2057
I2071
sg2512
I2531
sg3748
I3775
sg908
I913
sg2058
I2072
sg4184
I4214
sg497
I499
sg4505
I4540
sg3289
I3313
sg3290
I3314
sg2059
I2073
sg2909
I2930
sg909
I914
sg4506
I4541
sg506
I508
sg2367
I2384
sg1811
I1822
sg4507
I4542
sg512
I514
sg2652
I2673
sg2927
I2948
sg4509
I4544
sg4510
I4545
sg520
I523
sg2061
I2075
sg910
I915
sg4513
I4548
sg4514
I4549
sg3295
I3319
sg2942
I2963
sg2062
I2076
sg2063
I2077
sg2064
I2078
sg2065
I2079
sg3297
I3321
sg911
I916
sg3298
I3322
sg3299
I3323
sg2066
I2080
sg912
I917
sg4517
I4552
sg4165
I4195
sg913
I918
sg2068
I2082
sg3300
I3324
sg928
I933
sg2969
I2991
sg914
I919
sg2069
I2083
sg2070
I2084
sg3302
I3326
sg4519
I4554
sg3303
I3327
sg3974
I4003
sg915
I920
sg2072
I2086
sg4520
I4555
sg917
I922
sg918
I923
sg919
I924
sg3305
I3329
sg3306
I3330
sg920
I925
sg578
I581
sg3307
I3331
sg921
I926
sg1884
I1896
sg2074
I2088
sg3309
I3333
sg2075
I2089
sg922
I927
sg597
I600
sg924
I929
sg925
I930
sg2077
I2091
sg4521
I4556
sg926
I931
sg2963
I2985
sg927
I932
sg4566
I4602
sg929
I934
sg4522
I4557
sg930
I935
sg3977
I4006
sg1455
I1463
sg2079
I2093
sg4523
I4558
sg4378
I4412
sg4524
I4559
sg2080
I2094
sg2958
I2980
sg2631
I2652
sg1896
I1909
sg4178
I4208
sg4525
I4560
sg2082
I2096
sg3785
I3812
sg3312
I3336
sg4379
I4413
sg932
I937
sg3313
I3337
sg933
I938
sg3043
I3065
sg934
I939
sg2083
I2097
sg4527
I4562
sg2084
I2098
sg1829
I1840
sg3314
I3338
sg2085
I2099
sg647
I650
sg659
I662
sg4530
I4565
sg3779
I3806
sg935
I940
sg3315
I3339
sg936
I941
sg3316
I3340
sg937
I942
sg2087
I2101
sg3317
I3341
sg938
I943
sg3647
I3672
sg2088
I2102
sg2089
I2103
sg4531
I4566
sg4532
I4567
sg2137
I2152
sg3319
I3343
sg2090
I2104
sg2091
I2105
sg939
I944
sg982
I987
sg941
I946
sg4237
I4268
sg3979
I4008
sg3320
I3344
sg2139
I2154
sg689
I692
sg3099
I3122
sg2094
I2108
sg2897
I2918
sg3164
I3187
sg3987
I4016
sg3356
I3380
sg943
I948
sS'?'
I2349
sg3321
I3345
sg944
I949
sg4622
I4658
sg3323
I3347
sg4535
I4570
sg3127
I3150
sg2096
I2110
sg3324
I3348
sg4536
I4571
sg3325
I3349
sg3326
I3350
sg738
I741
sg2098
I2112
sg4537
I4572
sg3544
I3569
sg946
I951
sg947
I952
sg2100
I2114
sg2896
I2917
sg3861
I3889
sg752
I755
sg3135
I3158
sg2101
I2115
sg2102
I2116
sg2103
I2117
sg761
I764
sg2104
I2118
sg2732
I2753
sg763
I766
sg3329
I3353
sg3330
I3354
sg2105
I2119
sg2106
I2120
sg2107
I2121
sg1551
I1559
sg2108
I2122
sg949
I954
sg4230
I4261
sg4092
I4122
sS';'
I2123
sg2109
I2124
sg950
I955
sg951
I956
sg952
I957
sg4183
I4213
sg953
I958
sg4543
I4578
sg2111
I2126
sg954
I959
sg3698
I3723
sg955
I960
sg4545
I4580
sg2112
I2127
sg956
I961
sg4210
I4241
sg957
I962
sg2113
I2128
sg3335
I3359
sg3336
I3360
sg958
I963
sg3337
I3361
sg2734
I2755
sg3339
I3363
sg2430
I2448
sg3340
I3364
sg3341
I3365
sg4548
I4583
sg960
I965
sg2735
I2756
sg3442
I3466
sg823
I826
sg961
I966
sg2870
I2891
sg2116
I2131
sg4550
I4585
sg2117
I2132
sg4098
I4128
sg2737
I2758
sg2118
I2133
sg329
I329
sg2684
I2705
sg3345
I3369
sg3228
I3252
sg963
I968
sg964
I969
sg965
I970
sg2119
I2134
sg852
I855
sg3346
I3370
sg4554
I4589
sg1912
I1925
sg4228
I4259
sg2122
I2137
sg2604
I2624
sg868
I871
sg4758
I4794
sg2124
I2139
sg874
I878
sg4556
I4591
sg4557
I4592
sg877
I881
sg987
I992
sg966
I971
sg967
I972
sg2126
I2141
sg3349
I3373
sg968
I973
sg2127
I2142
sg2752
I2773
sg3350
I3374
sg3301
I3325
sg4560
I4595
sg3148
I3171
sg708
I711
sg2128
I2143
sg4759
I4795
sg969
I974
sg159
I157
sg3274
I3298
sg971
I976
sg1733
I1742
sg4563
I4599
sg2129
I2144
sg2130
I2145
sg2131
I2146
sg3713
I3739
sg3352
I3376
sg2132
I2147
sg2133
I2148
sg3287
I3311
sg972
I977
sg973
I978
sg2134
I2149
sg4185
I4215
sg3699
I3724
sg4667
I4703
sg2135
I2150
sg4575
I4611
sg3353
I3377
sg976
I981
sg4565
I4601
sg3012
I3034
sg4567
I4603
sg977
I982
sg4568
I4604
sg978
I983
sg3549
I3574
sg979
I984
sg2739
I2760
sg981
I986
sg940
I945
sg2138
I2153
sg1890
I1903
sg2740
I2761
sg983
I988
sg984
I989
sg3906
I3935
sg4421
I4455
sg4780
I4816
sg2142
I2157
sg2143
I2158
sg3331
I3355
sg2144
I2159
sg985
I990
sg2970
I2992
sg3358
I3382
sg2145
I2160
sg2146
I2161
sg4763
I4799
sg3991
I4020
sg2148
I2163
sg986
I991
sg975
I980
sg988
I993
sg1355
I1362
sg989
I994
sg3089
I3112
sg990
I995
sg3360
I3384
sg991
I996
sg980
I985
sg992
I997
sg2150
I2165
sg993
I998
sg3603
I3628
sg4578
I4614
sg994
I999
sg2152
I2167
sg995
I1000
sg1000
I1005
sg3362
I3386
sg4328
I4361
sg2760
I2781
sg996
I1001
sg997
I1002
sg3363
I3387
sg4581
I4617
sg4359
I4393
sg998
I1003
sg4583
I4619
sg4764
I4800
sg2154
I2169
sg2155
I2170
sg3365
I3389
sg4765
I4801
sg2843
I2864
sg1022
I1027
sg999
I1004
sg4584
I4620
sg2156
I2171
sg3361
I3385
sg1001
I1006
sg2157
I2172
sg1002
I1007
sg3369
I3393
sg2158
I2173
sg1038
I1043
sg2159
I2174
sg2160
I2175
sg3370
I3394
sg1003
I1008
sg1004
I1009
sg4124
I4154
sg1005
I1010
sg1048
I1054
sg3406
I3430
sg4588
I4624
sg1007
I1012
sg1008
I1013
sg1009
I1014
sg1010
I1015
sg1011
I1016
sg1012
I1017
sg162
I160
sg4590
I4626
sg3374
I3398
sg1013
I1018
sg4591
I4627
sg1951
I1964
sg4158
I4188
sg3722
I3748
sg1014
I1019
sg3375
I3399
sg1015
I1020
sg1072
I1078
sg2166
I2181
sg2167
I2182
sg3308
I3332
sg1016
I1021
sg4593
I4629
sg4594
I4630
sg2344
I2361
sg3379
I3403
sg2742
I2763
sg1083
I1089
sg3170
I3194
sg1017
I1022
sg3130
I3153
sg1952
I1965
sg2743
I2764
sg3456
I3480
sg1018
I1023
sg3380
I3404
sg3381
I3405
sg1019
I1024
sg4768
I4804
sg2169
I2184
sg487
I489
sg3382
I3406
sg2172
I2187
sg2174
I2189
sg4599
I4635
sg3383
I3407
sg1020
I1025
sS'1'
I4022
sg2175
I2190
sg3171
I3195
sg3484
I3509
sg3923
I3952
sg4597
I4633
sg4386
I4420
sg1021
I1026
sg3384
I3408
sg2836
I2857
sg2177
I2192
sg2178
I2193
sg4606
I4642
sg4607
I4643
sg4608
I4644
sg2976
I2998
sg3366
I3390
sg3385
I3409
sg2561
I2581
sg1023
I1028
sg1024
I1029
sg4609
I4645
sg3344
I3368
sg4387
I4421
sg2179
I2194
sg706
I709
sg2746
I2767
sg2531
I2550
sg4614
I4650
sg4615
I4651
sg1026
I1031
sg3386
I3410
sg3560
I3585
sg1027
I1032
sg1028
I1033
sg2182
I2197
sg2183
I2198
sg1029
I1034
sg3388
I3412
sg2971
I2993
sg2185
I2200
sg4585
I4621
sg1168
I1174
sg4618
I4654
sg1030
I1035
sg3059
I3081
sg4128
I4158
sg2097
I2111
sg1031
I1036
sg3038
I3060
sg1542
I1550
sg4620
I4656
sg4672
I4708
sg2533
I2552
sg2187
I2202
sg1032
I1037
sg1033
I1038
sg3367
I3391
sg2188
I2203
sg1361
I1368
sg1034
I1039
sg3368
I3392
sg1905
I1918
sg4802
I4838
sg1035
I1040
sg1036
I1041
sg2534
I2553
sg2190
I2205
sg2191
I2206
sg2192
I2207
sg1037
I1042
sg4623
I4659
sg4586
I4622
sg3393
I3417
sg2535
I2554
sg4033
I4063
sg1039
I1044
sg38
I35
sg4624
I4660
sg3168
I3191
sg3394
I3418
sS"'"
I1045
sg2193
I2208
sg1040
I1046
sg3070
I3093
sg2831
I2852
sg4187
I4217
sg4626
I4662
sg4152
I4182
sg1218
I1225
sg1219
I1226
sg4627
I4663
sg3602
I3627
sg1956
I1969
sg3395
I3419
sg3396
I3420
sg3397
I3421
sg1754
I1764
sg1041
I1047
sg1042
I1048
sg2195
I2210
sg3772
I3799
sg2196
I2211
sg3616
I3641
sg4630
I4666
sg2197
I2212
sg3398
I3422
sg4109
I4139
sg2198
I2213
sg1043
I1049
sg2161
I2176
sg1727
I1736
sg4772
I4808
sg1044
I1050
sg3400
I3424
sg3401
I3425
sg3402
I3426
sg1756
I1766
sg1045
I1051
sg3403
I3427
sg3404
I3428
sg2162
I2177
sg1611
I1619
sg1046
I1052
sg4632
I4668
sg1047
I1053
sg1006
I1011
sg1049
I1055
sg2203
I2218
sg3405
I3429
sg3658
I3683
sg3407
I3431
sg1050
I1056
sg1051
I1057
sg1759
I1769
sg1052
I1058
sg4635
I4671
sg1053
I1059
sg1297
I1304
sg2163
I2178
sg1834
I1845
sg1303
I1310
sg1054
I1060
sg4391
I4425
sg1055
I1061
sg4754
I4790
sg4638
I4674
sg1556
I1564
sg3501
I3526
sg3409
I3433
sg3410
I3434
sg1056
I1062
sg2756
I2777
sg1321
I1328
sg3774
I3801
sg2875
I2896
sg1057
I1063
sg3711
I3737
sg3998
I4028
sg3714
I3740
sg1761
I1771
sg1059
I1065
sg1060
I1066
sg4651
I4687
sg2209
I2224
sg2757
I2778
sg4000
I4030
sg2543
I2562
sg3414
I3438
sg2210
I2225
sg3373
I3397
sg4640
I4676
sg1061
I1067
sg1763
I1773
sg2149
I2164
sg1063
I1069
sg3416
I3440
sg4641
I4677
sg1064
I1070
sg4172
I4202
sg3417
I3441
sg3788
I3815
sg3418
I3442
sg4644
I4680
sg4549
I4584
sg2211
I2226
sg4308
I4341
sg2212
I2227
sg3502
I3527
sg361
I361
sg1065
I1071
sg2213
I2228
sg3419
I3443
sg4376
I4410
sg3178
I3202
sg2214
I2229
sg2215
I2230
sg4258
I4289
sg2729
I2750
sg3983
I4012
sg1572
I1580
sg2982
I3004
sg1067
I1073
sg1068
I1074
sg3420
I3444
sg2216
I2231
sg1069
I1075
sg2217
I2232
sg1070
I1076
sg2218
I2233
sg3421
I3445
sg4648
I4684
sg3376
I3400
sg1394
I1401
sg1071
I1077
sg1396
I1403
sg3423
I3447
sg2219
I2234
sg2220
I2235
sg3424
I3448
sg2165
I2180
sg1404
I1411
sg1073
I1079
sg1074
I1080
sg570
I573
sg4070
I4100
sg2223
I2238
sg1076
I1082
sg2224
I2239
sg1413
I1420
sg1415
I1422
sg2225
I2240
sg3776
I3803
sg3428
I3452
sg4200
I4230
sg2226
I2241
sg1422
I1429
sg3429
I3453
sg3675
I3700
sg4650
I4686
sg2017
I2031
sg1967
I1980
sg1077
I1083
sg3431
I3455
sg2227
I2242
sg2228
I2243
sg1078
I1084
sg4652
I4688
sg2230
I2245
sg2416
I2433
sg4654
I4690
sg2231
I2246
sg2232
I2247
sg4146
I4176
sg1080
I1086
sg2234
I2249
sg3561
I3586
sg4002
I4032
sg1081
I1087
sg4733
I4769
sg2235
I2250
sg2236
I2251
sg2237
I2252
sg3378
I3402
sg3894
I3923
sg3433
I3457
sg3434
I3458
sg2986
I3008
sg1082
I1088
sg3902
I3931
sg2238
I2253
sg2354
I2371
sg2763
I2784
sg3435
I3459
sg1084
I1090
sg2241
I2256
sg3437
I3461
sg1085
I1091
sg4290
I4322
sg3438
I3462
sg3439
I3463
sg4658
I4694
sg1369
I1376
sg3937
I3966
sg2242
I2257
sg2243
I2258
sg2168
I2183
sg3764
I3791
sg3441
I3465
sg1087
I1093
sg1088
I1094
sg2244
I2259
sg1089
I1095
sg2092
I2106
sg2245
I2260
sg1090
I1096
sg3443
I3467
sg1769
I1779
sg2548
I2567
sg1091
I1097
sg3221
I3245
sg1092
I1098
sg2247
I2262
sg3962
I3991
sg4003
I4033
sg1093
I1099
sg3183
I3207
sg3445
I3469
sg1094
I1100
sg1095
I1101
sg4664
I4700
sg916
I921
sg1096
I1102
sg3446
I3470
sg3975
I4004
sg1097
I1103
sg2136
I2151
sg3566
I3591
sg3293
I3317
sg2767
I2788
sg1098
I1104
sg3447
I3471
sg1099
I1105
sg1771
I1781
sg3448
I3472
sg3449
I3473
sg3450
I3474
sg2305
I2320
sg2251
I2266
sg4582
I4618
sg2691
I2712
sg3453
I3477
sg4669
I4705
sg4670
I4706
sg4671
I4707
sg3454
I3478
sg2252
I2267
sg3455
I3479
sg4673
I4709
sg1931
I1944
sg2866
I2887
sg2253
I2268
sg2254
I2269
sg3661
I3686
sg4779
I4815
sg2255
I2270
sg2900
I2921
sg4674
I4710
sg2256
I2271
sg3457
I3481
sg3458
I3482
sg1100
I1106
sg4385
I4419
sg2257
I2272
sg4675
I4711
sg3459
I3483
sg2258
I2273
sg1619
I1627
sg1101
I1107
sg1102
I1108
sg2259
I2274
sg3913
I3942
sg4300
I4332
sg2260
I2275
sg1773
I1783
sg1104
I1110
sg2261
I2276
sg4041
I4071
sS'C'
I2570
sg2262
I2277
sg2263
I2278
sg1105
I1111
sg2264
I2279
sg1106
I1112
sg3180
I3204
sg3898
I3927
sg4005
I4035
sg1107
I1113
sg3465
I3489
sg4221
I4252
sg1108
I1114
sg1109
I1115
sg3466
I3490
sg3467
I3491
sg248
I247
sg4782
I4818
sg3470
I3494
sg1110
I1116
sg2265
I2280
sg2360
I2377
sg1111
I1117
sg4680
I4716
sg2361
I2378
sg4006
I4036
sg1112
I1118
sg4761
I4797
sg1113
I1119
sg3473
I3497
sg2268
I2283
sg3783
I3810
sg2269
I2284
sg2992
I3014
sg3474
I3498
sg4683
I4719
sg1114
I1120
sg2270
I2285
sS'S'
I3499
sg4685
I4721
sg3904
I3933
sg2271
I2286
sg2993
I3015
sg2272
I2287
sg3671
I3696
sg1115
I1121
sg2273
I2288
sg1116
I1122
sg4682
I4718
sg2274
I2289
sg1117
I1123
sg3186
I3210
sg3478
I3503
sg1118
I1124
sg1119
I1125
sg1120
I1126
sg3479
I3504
sg1121
I1127
sg579
I582
sg1123
I1129
sg2173
I2188
sg1388
I1395
sg4796
I4832
sg2276
I2291
sg3482
I3507
sg3483
I3508
sg3767
I3794
sg3485
I3510
sg3486
I3511
sg4689
I4725
sg2639
I2660
sg3487
I3512
sg4551
I4586
sg1124
I1130
sg3488
I3513
sg4690
I4726
sg4691
I4727
sg4428
I4462
sg3489
I3514
sg4692
I4728
sg4422
I4456
sg3787
I3814
sg4693
I4729
sg3490
I3515
sg3935
I3964
sg4694
I4730
sg2995
I3017
sg1125
I1131
sg3492
I3517
sg2277
I2292
sg2278
I2293
sg3493
I3518
sg2474
I2493
sg1126
I1132
sg2280
I2295
sg1127
I1133
sg4347
I4381
sg3495
I3520
sg513
I515
sg1128
I1134
sg4447
I4482
sg3539
I3564
sg3496
I3521
sg2282
I2297
sg2283
I2298
sg2284
I2299
sg4604
I4640
sg1129
I1135
sg1968
I1981
sg4695
I4731
sg2994
I3016
sg2285
I2300
sg1783
I1793
sg3498
I3523
sg4596
I4632
sg1791
I1801
sg4605
I4641
sg2286
I2301
sg3500
I3525
sg1796
I1806
sg2774
I2795
sg2288
I2303
sg799
I802
sg4456
I4491
sg2996
I3018
sg4231
I4262
sg2290
I2305
sg3503
I3528
sg3504
I3529
sg3505
I3530
sg4697
I4733
sg2761
I2782
sg3506
I3531
sg1130
I1136
sg2292
I2307
sg4701
I4737
sg3507
I3532
sg3508
I3533
sg3509
I3534
sg4702
I4738
sg4250
I4281
sg4704
I4740
sg1960
I1973
sg1131
I1137
sg4453
I4488
sg2293
I2308
sg3511
I3536
sg1660
I1668
sg1132
I1138
sg2997
I3019
sg1133
I1139
sg3512
I3537
sg1134
I1140
sg1135
I1141
sg2294
I2309
sg4274
I4305
sg4707
I4743
sg4708
I4744
sg2295
I2310
sg1136
I1142
sg4259
I4290
sg524
I527
sg1137
I1143
sg3513
I3538
sg4371
I4405
sg1138
I1144
sg1776
I1786
sg3792
I3819
sg4710
I4746
sg2298
I2313
sg3664
I3689
sg2299
I2314
sg4712
I4748
sg4252
I4283
sg1778
I1788
sg2302
I2317
sg1865
I1877
sg4611
I4647
sg2303
I2318
sg2304
I2319
sg3000
I3022
sg4715
I4751
sg4716
I4752
sg4717
I4753
sg1140
I1146
sg1141
I1147
sg2032
I2046
sg1142
I1148
sg1143
I1149
sg1144
I1150
sg1145
I1151
sg1381
I1388
sg3517
I3542
sg4719
I4755
sg1146
I1152
sg1147
I1153
sg1148
I1154
sg1149
I1155
sg3644
I3669
sg4437
I4471
sg2728
I2749
sg1150
I1156
sg2306
I2321
sg1875
I1887
sS'i'
I2322
sg1151
I1157
sg2307
I2323
sg4725
I4761
sg4726
I4762
sg3520
I3545
sg3150
I3173
sg1152
I1158
sg2308
I2324
sg3522
I3547
sg1153
I1159
sg1079
I1085
sg2309
I2325
sg2310
I2326
sg1944
I1957
sg1154
I1160
sg1155
I1161
sg2311
I2327
sg4790
I4826
sg3387
I3411
sg2312
I2328
sg1593
I1601
sg1156
I1162
sg2313
I2329
sg1157
I1163
sg3526
I3551
sg2479
I2498
sg4512
I4547
sg1652
I1660
sg959
I964
sg1595
I1603
sg4734
I4770
sg3527
I3552
sg3003
I3025
sg1969
I1982
sg2314
I2330
sg805
I808
sg333
I333
sg3529
I3554
sg1596
I1604
sg3195
I3219
sg4444
I4479
sg2315
I2331
sg4420
I4454
sg1160
I1166
sg1161
I1167
sg4528
I4563
sg4738
I4774
sg3531
I3556
sg2316
I2332
sg1988
I2001
sg4740
I4776
sg4794
I4830
sg3389
I3413
sg1162
I1168
sg4076
I4106
sg2008
I2021
sg2318
I2334
sg1164
I1170
sS'T'
I2628
sg4224
I4255
sg1165
I1171
sg2319
I2335
sg4744
I4780
sg2320
I2336
sg1166
I1172
sg1167
I1173
sg2693
I2714
sg4208
I4239
sg2019
I2033
sg3534
I3559
sg1169
I1175
sg2321
I2337
sg1170
I1176
sg2027
I2041
sg2322
I2338
sg2323
I2339
sg1171
I1177
sg4024
I4054
sg3535
I3560
sg3536
I3561
sg3537
I3562
sg2324
I2340
sg3197
I3221
sg3004
I3026
sg2326
I2342
sg4746
I4782
sg3605
I3630
sg1172
I1178
sg3005
I3027
sg4489
I4524
sg4414
I4448
sg4749
I4785
sg2327
I2343
sg3538
I3563
sg1173
I1179
sg3980
I4009
sg4731
I4767
sg1174
I1180
sg2328
I2344
sg1175
I1181
sg4750
I4786
sg1176
I1182
sg3192
I3216
sg3540
I3565
sg2721
I2742
sg4619
I4655
sg2330
I2346
sg2078
I2092
sg2331
I2347
sg4753
I4789
sg2186
I2201
sg2332
I2348
sg4326
I4359
sg3533
I3558
sg4755
I4791
sg1177
I1183
sg2562
I2582
sg3542
I3567
sg1178
I1184
sg1179
I1185
sg3543
I3568
sg1180
I1186
sg2333
I2350
sg2334
I2351
sg2335
I2352
sg4756
I4792
sg4212
I4243
sg1181
I1187
sg2785
I2806
sg3799
I3826
sg4113
I4143
sg3377
I3401
sg4576
I4612
sg4705
I4741
sg4213
I4244
sg3545
I3570
sg4134
I4164
sg1182
I1188
sg1183
I1189
sg3548
I3573
sg1745
I1755
sg4570
I4606
sg4762
I4798
sg3390
I3414
sg4573
I4609
sg2153
I2168
sg2337
I2354
sg2338
I2355
sg1184
I1190
sg2339
I2356
sg2340
I2357
sg2341
I2358
sg2342
I2359
sg2343
I2360
sg2189
I2204
sg1185
I1191
sg4767
I4803
sg4416
I4450
sg1186
I1192
sg4769
I4805
sg3710
I3736
sg4602
I4638
sg4770
I4806
sg1187
I1193
sg2180
I2195
sg3550
I3575
sg2184
I2199
sg2345
I2362
sg3551
I3576
sg4014
I4044
sg3802
I3829
sg3552
I3577
sg1189
I1195
sg2567
I2587
sg1190
I1196
sg3700
I3725
sg4214
I4245
sg2346
I2363
sg2347
I2364
sg3247
I3271
sg4149
I4179
sg4333
I4366
sg1191
I1197
sg4418
I4452
sg3554
I3579
sg1192
I1198
sg4015
I4045
sg4773
I4809
sg4774
I4810
sg2204
I2219
sg4728
I4764
sg3199
I3223
sg2350
I2367
sg3556
I3581
sg4775
I4811
sg4799
I4835
sg2351
I2368
sg4700
I4736
sg3558
I3583
sg1387
I1394
sg2564
I2584
sg3559
I3584
sg2229
I2244
sg2352
I2369
sg2926
I2947
sg1193
I1199
sg3562
I3587
sg2353
I2370
sg2239
I2254
sg3563
I3588
sg3392
I3416
sg2355
I2372
sg3212
I3236
sg1194
I1200
sg3008
I3030
sg3860
I3888
sg2356
I2373
sg2357
I2374
sg1389
I1396
sg1195
I1201
sg1196
I1202
sg1197
I1203
sg3568
I3593
sg2902
I2923
sg4473
I4508
sg1198
I1204
sg3569
I3594
sg2358
I2375
sg1199
I1205
sg2359
I2376
sg2266
I2281
sg1200
I1206
sg4267
I4298
sg1201
I1207
sg4783
I4819
sg2362
I2379
sg3571
I3596
sg2363
I2380
sg4784
I4820
sg3572
I3597
sg2364
I2381
sg1793
I1803
sg3574
I3599
sg2279
I2294
sg4216
I4247
sg1222
I1229
sg1203
I1209
sg3576
I3601
sg4786
I4822
sg3577
I3602
sg4699
I4735
sg4787
I4823
sg1204
I1210
sg3578
I3603
sg4676
I4712
sg4423
I4457
sg1794
I1804
sg3580
I3605
sg2300
I2315
sg2366
I2383
sg2569
I2589
sg1206
I1212
sg2368
I2385
sg4696
I4732
sg3203
I3227
sg3582
I3607
sg4736
I4772
sg4793
I4829
sg1207
I1213
sg3584
I3609
sg3585
I3610
sg3586
I3611
sg3587
I3612
sg4795
I4831
sg1208
I1214
sg2369
I2386
sg4797
I4833
sg4656
I4692
sg3588
I3613
sg1606
I1614
sg3589
I3614
sg2370
I2387
sg2371
I2388
sS'U'
I1216
sg3810
I3837
sg4219
I4250
sg4336
I4369
sg3985
I4014
sg2372
I2389
sg4776
I4812
sg3075
I3098
sg1730
I1739
sg3056
I3078
sg4625
I4661
sg2373
I2390
sg205
I204
sg1531
I1539
sg2374
I2391
sg1211
I1218
sg3590
I3615
sg4143
I4173
sa.